
ass1:	file format Mach-O 64-bit x86-64

Disassembly of section __TEXT,__text:
__text:
100000980:	55 	pushq	%rbp
100000981:	48 89 e5 	movq	%rsp, %rbp
100000984:	48 81 ec 00 01 00 00 	subq	$256, %rsp
10000098b:	48 89 f8 	movq	%rdi, %rax
10000098e:	89 75 fc 	movl	%esi, -4(%rbp)
100000991:	83 7d fc 01 	cmpl	$1, -4(%rbp)
100000995:	48 89 bd 30 ff ff ff 	movq	%rdi, -208(%rbp)
10000099c:	48 89 85 28 ff ff ff 	movq	%rax, -216(%rbp)
1000009a3:	0f 85 ac 00 00 00 	jne	172 <__Z4treei+0xd5>
1000009a9:	c6 45 fb 00 	movb	$0, -5(%rbp)
1000009ad:	48 8b bd 30 ff ff ff 	movq	-208(%rbp), %rdi
1000009b4:	e8 37 03 00 00 	callq	823 <__ZNSt3__16vectorINS_12basic_stringIcNS_11char_traitsIcEENS_9allocatorIcEEEENS4_IS6_EEEC1Ev>
1000009b9:	48 8d 35 74 34 00 00 	leaq	13428(%rip), %rsi
1000009c0:	48 8d 7d e0 	leaq	-32(%rbp), %rdi
1000009c4:	e8 f7 03 00 00 	callq	1015 <__ZNSt3__112basic_stringIcNS_11char_traitsIcEENS_9allocatorIcEEEC1INS_9nullptr_tEEEPKc>
1000009c9:	e9 00 00 00 00 	jmp	0 <__Z4treei+0x4e>
1000009ce:	48 8d 75 e0 	leaq	-32(%rbp), %rsi
1000009d2:	48 8b bd 30 ff ff ff 	movq	-208(%rbp), %rdi
1000009d9:	e8 32 03 00 00 	callq	818 <__ZNSt3__16vectorINS_12basic_stringIcNS_11char_traitsIcEENS_9allocatorIcEEEENS4_IS6_EEE9push_backERKS6_>
1000009de:	e9 00 00 00 00 	jmp	0 <__Z4treei+0x63>
1000009e3:	48 8d 7d e0 	leaq	-32(%rbp), %rdi
1000009e7:	e8 1c 30 00 00 	callq	12316 <dyld_stub_binder+0x100003a08>
1000009ec:	e9 00 00 00 00 	jmp	0 <__Z4treei+0x71>
1000009f1:	c6 45 fb 01 	movb	$1, -5(%rbp)
1000009f5:	f6 45 fb 01 	testb	$1, -5(%rbp)
1000009f9:	0f 85 3b 00 00 00 	jne	59 <__Z4treei+0xba>
1000009ff:	e9 2a 00 00 00 	jmp	42 <__Z4treei+0xae>
100000a04:	89 d1 	movl	%edx, %ecx
100000a06:	48 89 45 d8 	movq	%rax, -40(%rbp)
100000a0a:	89 4d d4 	movl	%ecx, -44(%rbp)
100000a0d:	e9 2d 00 00 00 	jmp	45 <__Z4treei+0xbf>
100000a12:	89 d1 	movl	%edx, %ecx
100000a14:	48 89 45 d8 	movq	%rax, -40(%rbp)
100000a18:	89 4d d4 	movl	%ecx, -44(%rbp)
100000a1b:	48 8d 7d e0 	leaq	-32(%rbp), %rdi
100000a1f:	e8 e4 2f 00 00 	callq	12260 <dyld_stub_binder+0x100003a08>
100000a24:	e9 00 00 00 00 	jmp	0 <__Z4treei+0xa9>
100000a29:	e9 11 00 00 00 	jmp	17 <__Z4treei+0xbf>
100000a2e:	48 8b bd 30 ff ff ff 	movq	-208(%rbp), %rdi
100000a35:	e8 c6 03 00 00 	callq	966 <__ZNSt3__16vectorINS_12basic_stringIcNS_11char_traitsIcEENS_9allocatorIcEEEENS4_IS6_EEED1Ev>
100000a3a:	e9 7b 02 00 00 	jmp	635 <__Z4treei+0x33a>
100000a3f:	48 8b bd 30 ff ff ff 	movq	-208(%rbp), %rdi
100000a46:	e8 b5 03 00 00 	callq	949 <__ZNSt3__16vectorINS_12basic_stringIcNS_11char_traitsIcEENS_9allocatorIcEEEENS4_IS6_EEED1Ev>
100000a4b:	e9 00 00 00 00 	jmp	0 <__Z4treei+0xd0>
100000a50:	e9 75 02 00 00 	jmp	629 <__Z4treei+0x34a>
100000a55:	48 8d 7d b8 	leaq	-72(%rbp), %rdi
100000a59:	e8 92 02 00 00 	callq	658 <__ZNSt3__16vectorINS_12basic_stringIcNS_11char_traitsIcEENS_9allocatorIcEEEENS4_IS6_EEEC1Ev>
100000a5e:	8b 45 fc 	movl	-4(%rbp), %eax
100000a61:	ff c8 	decl	%eax
100000a63:	48 8d 7d a0 	leaq	-96(%rbp), %rdi
100000a67:	89 c6 	movl	%eax, %esi
100000a69:	e8 12 ff ff ff 	callq	-238 <__Z4treei>
100000a6e:	e9 00 00 00 00 	jmp	0 <__Z4treei+0xf3>
100000a73:	c7 45 9c 00 00 00 00 	movl	$0, -100(%rbp)
100000a7a:	48 63 45 9c 	movslq	-100(%rbp), %rax
100000a7e:	48 8d 7d a0 	leaq	-96(%rbp), %rdi
100000a82:	48 89 85 20 ff ff ff 	movq	%rax, -224(%rbp)
100000a89:	e8 92 03 00 00 	callq	914 <__ZNKSt3__16vectorINS_12basic_stringIcNS_11char_traitsIcEENS_9allocatorIcEEEENS4_IS6_EEE4sizeEv>
100000a8e:	48 8b bd 20 ff ff ff 	movq	-224(%rbp), %rdi
100000a95:	48 39 c7 	cmpq	%rax, %rdi
100000a98:	0f 83 c5 01 00 00 	jae	453 <__Z4treei+0x2e3>
100000a9e:	48 63 75 9c 	movslq	-100(%rbp), %rsi
100000aa2:	48 8d 7d a0 	leaq	-96(%rbp), %rdi
100000aa6:	e8 a5 04 00 00 	callq	1189 <__ZNSt3__16vectorINS_12basic_stringIcNS_11char_traitsIcEENS_9allocatorIcEEEENS4_IS6_EEEixEm>
100000aab:	48 89 85 18 ff ff ff 	movq	%rax, -232(%rbp)
100000ab2:	e9 00 00 00 00 	jmp	0 <__Z4treei+0x137>
100000ab7:	48 8d 35 7a 33 00 00 	leaq	13178(%rip), %rsi
100000abe:	48 8d bd 68 ff ff ff 	leaq	-152(%rbp), %rdi
100000ac5:	48 8b 95 18 ff ff ff 	movq	-232(%rbp), %rdx
100000acc:	e8 a3 2f 00 00 	callq	12195 <dyld_stub_binder+0x100003a74>
100000ad1:	e9 00 00 00 00 	jmp	0 <__Z4treei+0x156>
100000ad6:	48 8d 15 5d 33 00 00 	leaq	13149(%rip), %rdx
100000add:	48 8d 7d 80 	leaq	-128(%rbp), %rdi
100000ae1:	48 8d b5 68 ff ff ff 	leaq	-152(%rbp), %rsi
100000ae8:	e8 63 03 00 00 	callq	867 <__ZNSt3__1plIcNS_11char_traitsIcEENS_9allocatorIcEEEENS_12basic_stringIT_T0_T1_EERKS9_PKS6_>
100000aed:	e9 00 00 00 00 	jmp	0 <__Z4treei+0x172>
100000af2:	48 8d 7d b8 	leaq	-72(%rbp), %rdi
100000af6:	48 8d 75 80 	leaq	-128(%rbp), %rsi
100000afa:	e8 11 02 00 00 	callq	529 <__ZNSt3__16vectorINS_12basic_stringIcNS_11char_traitsIcEENS_9allocatorIcEEEENS4_IS6_EEE9push_backERKS6_>
100000aff:	e9 00 00 00 00 	jmp	0 <__Z4treei+0x184>
100000b04:	48 8d 7d 80 	leaq	-128(%rbp), %rdi
100000b08:	e8 fb 2e 00 00 	callq	12027 <dyld_stub_binder+0x100003a08>
100000b0d:	e9 00 00 00 00 	jmp	0 <__Z4treei+0x192>
100000b12:	48 8d bd 68 ff ff ff 	leaq	-152(%rbp), %rdi
100000b19:	e8 ea 2e 00 00 	callq	12010 <dyld_stub_binder+0x100003a08>
100000b1e:	e9 00 00 00 00 	jmp	0 <__Z4treei+0x1a3>
100000b23:	48 63 75 9c 	movslq	-100(%rbp), %rsi
100000b27:	48 8d 7d a0 	leaq	-96(%rbp), %rdi
100000b2b:	e8 20 04 00 00 	callq	1056 <__ZNSt3__16vectorINS_12basic_stringIcNS_11char_traitsIcEENS_9allocatorIcEEEENS4_IS6_EEEixEm>
100000b30:	48 89 85 10 ff ff ff 	movq	%rax, -240(%rbp)
100000b37:	e9 00 00 00 00 	jmp	0 <__Z4treei+0x1bc>
100000b3c:	48 8d 35 fa 32 00 00 	leaq	13050(%rip), %rsi
100000b43:	48 8d bd 38 ff ff ff 	leaq	-200(%rbp), %rdi
100000b4a:	48 8b 95 10 ff ff ff 	movq	-240(%rbp), %rdx
100000b51:	e8 1e 2f 00 00 	callq	12062 <dyld_stub_binder+0x100003a74>
100000b56:	e9 00 00 00 00 	jmp	0 <__Z4treei+0x1db>
100000b5b:	48 8d 15 de 32 00 00 	leaq	13022(%rip), %rdx
100000b62:	48 8d bd 50 ff ff ff 	leaq	-176(%rbp), %rdi
100000b69:	48 8d b5 38 ff ff ff 	leaq	-200(%rbp), %rsi
100000b70:	e8 db 02 00 00 	callq	731 <__ZNSt3__1plIcNS_11char_traitsIcEENS_9allocatorIcEEEENS_12basic_stringIT_T0_T1_EERKS9_PKS6_>
100000b75:	e9 00 00 00 00 	jmp	0 <__Z4treei+0x1fa>
100000b7a:	48 8d 7d b8 	leaq	-72(%rbp), %rdi
100000b7e:	48 8d b5 50 ff ff ff 	leaq	-176(%rbp), %rsi
100000b85:	e8 86 01 00 00 	callq	390 <__ZNSt3__16vectorINS_12basic_stringIcNS_11char_traitsIcEENS_9allocatorIcEEEENS4_IS6_EEE9push_backERKS6_>
100000b8a:	e9 00 00 00 00 	jmp	0 <__Z4treei+0x20f>
100000b8f:	48 8d bd 50 ff ff ff 	leaq	-176(%rbp), %rdi
100000b96:	e8 6d 2e 00 00 	callq	11885 <dyld_stub_binder+0x100003a08>
100000b9b:	e9 00 00 00 00 	jmp	0 <__Z4treei+0x220>
100000ba0:	48 8d bd 38 ff ff ff 	leaq	-200(%rbp), %rdi
100000ba7:	e8 5c 2e 00 00 	callq	11868 <dyld_stub_binder+0x100003a08>
100000bac:	e9 00 00 00 00 	jmp	0 <__Z4treei+0x231>
100000bb1:	e9 00 00 00 00 	jmp	0 <__Z4treei+0x236>
100000bb6:	8b 45 9c 	movl	-100(%rbp), %eax
100000bb9:	83 c0 01 	addl	$1, %eax
100000bbc:	89 45 9c 	movl	%eax, -100(%rbp)
100000bbf:	e9 b6 fe ff ff 	jmp	-330 <__Z4treei+0xfa>
100000bc4:	89 d1 	movl	%edx, %ecx
100000bc6:	48 89 45 d8 	movq	%rax, -40(%rbp)
100000bca:	89 4d d4 	movl	%ecx, -44(%rbp)
100000bcd:	e9 d5 00 00 00 	jmp	213 <__Z4treei+0x327>
100000bd2:	89 d1 	movl	%edx, %ecx
100000bd4:	48 89 45 d8 	movq	%rax, -40(%rbp)
100000bd8:	89 4d d4 	movl	%ecx, -44(%rbp)
100000bdb:	e9 b4 00 00 00 	jmp	180 <__Z4treei+0x314>
100000be0:	89 d1 	movl	%edx, %ecx
100000be2:	48 89 45 d8 	movq	%rax, -40(%rbp)
100000be6:	89 4d d4 	movl	%ecx, -44(%rbp)
100000be9:	e9 1c 00 00 00 	jmp	28 <__Z4treei+0x28a>
100000bee:	89 d1 	movl	%edx, %ecx
100000bf0:	48 89 45 d8 	movq	%rax, -40(%rbp)
100000bf4:	89 4d d4 	movl	%ecx, -44(%rbp)
100000bf7:	48 8d 7d 80 	leaq	-128(%rbp), %rdi
100000bfb:	e8 08 2e 00 00 	callq	11784 <dyld_stub_binder+0x100003a08>
100000c00:	e9 00 00 00 00 	jmp	0 <__Z4treei+0x285>
100000c05:	e9 00 00 00 00 	jmp	0 <__Z4treei+0x28a>
100000c0a:	48 8d bd 68 ff ff ff 	leaq	-152(%rbp), %rdi
100000c11:	e8 f2 2d 00 00 	callq	11762 <dyld_stub_binder+0x100003a08>
100000c16:	e9 00 00 00 00 	jmp	0 <__Z4treei+0x29b>
100000c1b:	e9 74 00 00 00 	jmp	116 <__Z4treei+0x314>
100000c20:	89 d1 	movl	%edx, %ecx
100000c22:	48 89 45 d8 	movq	%rax, -40(%rbp)
100000c26:	89 4d d4 	movl	%ecx, -44(%rbp)
100000c29:	e9 1f 00 00 00 	jmp	31 <__Z4treei+0x2cd>
100000c2e:	89 d1 	movl	%edx, %ecx
100000c30:	48 89 45 d8 	movq	%rax, -40(%rbp)
100000c34:	89 4d d4 	movl	%ecx, -44(%rbp)
100000c37:	48 8d bd 50 ff ff ff 	leaq	-176(%rbp), %rdi
100000c3e:	e8 c5 2d 00 00 	callq	11717 <dyld_stub_binder+0x100003a08>
100000c43:	e9 00 00 00 00 	jmp	0 <__Z4treei+0x2c8>
100000c48:	e9 00 00 00 00 	jmp	0 <__Z4treei+0x2cd>
100000c4d:	48 8d bd 38 ff ff ff 	leaq	-200(%rbp), %rdi
100000c54:	e8 af 2d 00 00 	callq	11695 <dyld_stub_binder+0x100003a08>
100000c59:	e9 00 00 00 00 	jmp	0 <__Z4treei+0x2de>
100000c5e:	e9 31 00 00 00 	jmp	49 <__Z4treei+0x314>
100000c63:	48 8d 75 b8 	leaq	-72(%rbp), %rsi
100000c67:	48 8b bd 30 ff ff ff 	movq	-208(%rbp), %rdi
100000c6e:	e8 fd 02 00 00 	callq	765 <__ZNSt3__16vectorINS_12basic_stringIcNS_11char_traitsIcEENS_9allocatorIcEEEENS4_IS6_EEEC1ERKS8_>
100000c73:	e9 00 00 00 00 	jmp	0 <__Z4treei+0x2f8>
100000c78:	48 8d 7d a0 	leaq	-96(%rbp), %rdi
100000c7c:	e8 7f 01 00 00 	callq	383 <__ZNSt3__16vectorINS_12basic_stringIcNS_11char_traitsIcEENS_9allocatorIcEEEENS4_IS6_EEED1Ev>
100000c81:	e9 00 00 00 00 	jmp	0 <__Z4treei+0x306>
100000c86:	48 8d 7d b8 	leaq	-72(%rbp), %rdi
100000c8a:	e8 71 01 00 00 	callq	369 <__ZNSt3__16vectorINS_12basic_stringIcNS_11char_traitsIcEENS_9allocatorIcEEEENS4_IS6_EEED1Ev>
100000c8f:	e9 26 00 00 00 	jmp	38 <__Z4treei+0x33a>
100000c94:	48 8d 7d a0 	leaq	-96(%rbp), %rdi
100000c98:	e8 63 01 00 00 	callq	355 <__ZNSt3__16vectorINS_12basic_stringIcNS_11char_traitsIcEENS_9allocatorIcEEEENS4_IS6_EEED1Ev>
100000c9d:	e9 00 00 00 00 	jmp	0 <__Z4treei+0x322>
100000ca2:	e9 00 00 00 00 	jmp	0 <__Z4treei+0x327>
100000ca7:	48 8d 7d b8 	leaq	-72(%rbp), %rdi
100000cab:	e8 50 01 00 00 	callq	336 <__ZNSt3__16vectorINS_12basic_stringIcNS_11char_traitsIcEENS_9allocatorIcEEEENS4_IS6_EEED1Ev>
100000cb0:	e9 00 00 00 00 	jmp	0 <__Z4treei+0x335>
100000cb5:	e9 10 00 00 00 	jmp	16 <__Z4treei+0x34a>
100000cba:	48 8b 85 28 ff ff ff 	movq	-216(%rbp), %rax
100000cc1:	48 81 c4 00 01 00 00 	addq	$256, %rsp
100000cc8:	5d 	popq	%rbp
100000cc9:	c3 	retq
100000cca:	48 8b 7d d8 	movq	-40(%rbp), %rdi
100000cce:	e8 e1 2c 00 00 	callq	11489 <dyld_stub_binder+0x1000039b4>
100000cd3:	0f 0b 	ud2
100000cd5:	48 89 c7 	movq	%rax, %rdi
100000cd8:	48 89 95 08 ff ff ff 	movq	%rdx, -248(%rbp)
100000cdf:	e8 0c 01 00 00 	callq	268 <___clang_call_terminate>
100000ce4:	66 2e 0f 1f 84 00 00 00 00 00 	nopw	%cs:(%rax,%rax)
100000cee:	66 90 	nop
100000cf0:	55 	pushq	%rbp
100000cf1:	48 89 e5 	movq	%rsp, %rbp
100000cf4:	48 83 ec 10 	subq	$16, %rsp
100000cf8:	48 89 7d f8 	movq	%rdi, -8(%rbp)
100000cfc:	48 8b 7d f8 	movq	-8(%rbp), %rdi
100000d00:	e8 cb 04 00 00 	callq	1227 <__ZNSt3__16vectorINS_12basic_stringIcNS_11char_traitsIcEENS_9allocatorIcEEEENS4_IS6_EEEC2Ev>
100000d05:	48 83 c4 10 	addq	$16, %rsp
100000d09:	5d 	popq	%rbp
100000d0a:	c3 	retq
100000d0b:	0f 1f 44 00 00 	nopl	(%rax,%rax)
100000d10:	55 	pushq	%rbp
100000d11:	48 89 e5 	movq	%rsp, %rbp
100000d14:	48 83 ec 30 	subq	$48, %rsp
100000d18:	48 89 7d f8 	movq	%rdi, -8(%rbp)
100000d1c:	48 89 75 f0 	movq	%rsi, -16(%rbp)
100000d20:	48 8b 75 f8 	movq	-8(%rbp), %rsi
100000d24:	48 8b 7e 08 	movq	8(%rsi), %rdi
100000d28:	48 89 f0 	movq	%rsi, %rax
100000d2b:	48 89 7d e0 	movq	%rdi, -32(%rbp)
100000d2f:	48 89 c7 	movq	%rax, %rdi
100000d32:	48 89 75 d8 	movq	%rsi, -40(%rbp)
100000d36:	e8 35 0c 00 00 	callq	3125 <__ZNSt3__113__vector_baseINS_12basic_stringIcNS_11char_traitsIcEENS_9allocatorIcEEEENS4_IS6_EEE9__end_capEv>
100000d3b:	48 8b 75 e0 	movq	-32(%rbp), %rsi
100000d3f:	48 3b 30 	cmpq	(%rax), %rsi
100000d42:	0f 84 5d 00 00 00 	je	93 <__ZNSt3__16vectorINS_12basic_stringIcNS_11char_traitsIcEENS_9allocatorIcEEEENS4_IS6_EEE9push_backERKS6_+0x95>
100000d48:	48 8d 7d e8 	leaq	-24(%rbp), %rdi
100000d4c:	48 8b 75 d8 	movq	-40(%rbp), %rsi
100000d50:	ba 01 00 00 00 	movl	$1, %edx
100000d55:	e8 36 0c 00 00 	callq	3126 <__ZNSt3__16vectorINS_12basic_stringIcNS_11char_traitsIcEENS_9allocatorIcEEEENS4_IS6_EEE24__RAII_IncreaseAnnotatorC1ERKS8_m>
100000d5a:	48 8b 55 d8 	movq	-40(%rbp), %rdx
100000d5e:	48 89 d7 	movq	%rdx, %rdi
100000d61:	e8 aa 09 00 00 	callq	2474 <__ZNSt3__113__vector_baseINS_12basic_stringIcNS_11char_traitsIcEENS_9allocatorIcEEEENS4_IS6_EEE7__allocEv>
100000d66:	48 8b 55 d8 	movq	-40(%rbp), %rdx
100000d6a:	48 8b 7a 08 	movq	8(%rdx), %rdi
100000d6e:	48 89 45 d0 	movq	%rax, -48(%rbp)
100000d72:	e8 a9 08 00 00 	callq	2217 <__ZNSt3__1L16__to_raw_pointerINS_12basic_stringIcNS_11char_traitsIcEENS_9allocatorIcEEEEEEPT_S8_>
100000d77:	48 8b 55 f0 	movq	-16(%rbp), %rdx
100000d7b:	48 8b 7d d0 	movq	-48(%rbp), %rdi
100000d7f:	48 89 c6 	movq	%rax, %rsi
100000d82:	e8 39 0c 00 00 	callq	3129 <__ZNSt3__116allocator_traitsINS_9allocatorINS_12basic_stringIcNS_11char_traitsIcEENS1_IcEEEEEEE9constructIS6_S6_EEvRS7_PT_RKT0_>
100000d87:	48 8d 7d e8 	leaq	-24(%rbp), %rdi
100000d8b:	e8 60 0c 00 00 	callq	3168 <__ZNSt3__16vectorINS_12basic_stringIcNS_11char_traitsIcEENS_9allocatorIcEEEENS4_IS6_EEE24__RAII_IncreaseAnnotator6__doneEv>
100000d90:	48 8b 45 d8 	movq	-40(%rbp), %rax
100000d94:	48 8b 50 08 	movq	8(%rax), %rdx
100000d98:	48 83 c2 18 	addq	$24, %rdx
100000d9c:	48 89 50 08 	movq	%rdx, 8(%rax)
100000da0:	e9 0d 00 00 00 	jmp	13 <__ZNSt3__16vectorINS_12basic_stringIcNS_11char_traitsIcEENS_9allocatorIcEEEENS4_IS6_EEE9push_backERKS6_+0xa2>
100000da5:	48 8b 75 f0 	movq	-16(%rbp), %rsi
100000da9:	48 8b 7d d8 	movq	-40(%rbp), %rdi
100000dad:	e8 9e 2c 00 00 	callq	11422 <dyld_stub_binder+0x100003a50>
100000db2:	48 83 c4 30 	addq	$48, %rsp
100000db6:	5d 	popq	%rbp
100000db7:	c3 	retq
100000db8:	0f 1f 84 00 00 00 00 00 	nopl	(%rax,%rax)
100000dc0:	55 	pushq	%rbp
100000dc1:	48 89 e5 	movq	%rsp, %rbp
100000dc4:	48 83 ec 10 	subq	$16, %rsp
100000dc8:	48 89 7d f8 	movq	%rdi, -8(%rbp)
100000dcc:	48 89 75 f0 	movq	%rsi, -16(%rbp)
100000dd0:	48 8b 7d f8 	movq	-8(%rbp), %rdi
100000dd4:	48 8b 75 f0 	movq	-16(%rbp), %rsi
100000dd8:	e8 93 19 00 00 	callq	6547 <__ZNSt3__112basic_stringIcNS_11char_traitsIcEENS_9allocatorIcEEEC2INS_9nullptr_tEEEPKc>
100000ddd:	48 83 c4 10 	addq	$16, %rsp
100000de1:	5d 	popq	%rbp
100000de2:	c3 	retq
100000de3:	66 2e 0f 1f 84 00 00 00 00 00 	nopw	%cs:(%rax,%rax)
100000ded:	0f 1f 00 	nopl	(%rax)
100000df0:	50 	pushq	%rax
100000df1:	e8 9c 2c 00 00 	callq	11420 <dyld_stub_binder+0x100003a92>
100000df6:	48 89 04 24 	movq	%rax, (%rsp)
100000dfa:	e8 7b 2c 00 00 	callq	11387 <dyld_stub_binder+0x100003a7a>
100000dff:	90 	nop
100000e00:	55 	pushq	%rbp
100000e01:	48 89 e5 	movq	%rsp, %rbp
100000e04:	48 83 ec 10 	subq	$16, %rsp
100000e08:	48 89 7d f8 	movq	%rdi, -8(%rbp)
100000e0c:	48 8b 7d f8 	movq	-8(%rbp), %rdi
100000e10:	e8 fb 05 00 00 	callq	1531 <__ZNSt3__16vectorINS_12basic_stringIcNS_11char_traitsIcEENS_9allocatorIcEEEENS4_IS6_EEED2Ev>
100000e15:	48 83 c4 10 	addq	$16, %rsp
100000e19:	5d 	popq	%rbp
100000e1a:	c3 	retq
100000e1b:	0f 1f 44 00 00 	nopl	(%rax,%rax)
100000e20:	55 	pushq	%rbp
100000e21:	48 89 e5 	movq	%rsp, %rbp
100000e24:	48 89 7d f8 	movq	%rdi, -8(%rbp)
100000e28:	48 8b 7d f8 	movq	-8(%rbp), %rdi
100000e2c:	48 8b 47 08 	movq	8(%rdi), %rax
100000e30:	48 8b 3f 	movq	(%rdi), %rdi
100000e33:	48 29 f8 	subq	%rdi, %rax
100000e36:	48 99 	cqto
100000e38:	bf 18 00 00 00 	movl	$24, %edi
100000e3d:	48 f7 ff 	idivq	%rdi
100000e40:	5d 	popq	%rbp
100000e41:	c3 	retq
100000e42:	66 2e 0f 1f 84 00 00 00 00 00 	nopw	%cs:(%rax,%rax)
100000e4c:	0f 1f 40 00 	nopl	(%rax)
100000e50:	55 	pushq	%rbp
100000e51:	48 89 e5 	movq	%rsp, %rbp
100000e54:	48 83 ec 70 	subq	$112, %rsp
100000e58:	48 89 f8 	movq	%rdi, %rax
100000e5b:	48 89 75 f8 	movq	%rsi, -8(%rbp)
100000e5f:	48 89 55 f0 	movq	%rdx, -16(%rbp)
100000e63:	c6 45 ef 00 	movb	$0, -17(%rbp)
100000e67:	48 8b 55 f8 	movq	-8(%rbp), %rdx
100000e6b:	48 89 7d b8 	movq	%rdi, -72(%rbp)
100000e6f:	48 89 d7 	movq	%rdx, %rdi
100000e72:	48 89 45 b0 	movq	%rax, -80(%rbp)
100000e76:	e8 f5 1d 00 00 	callq	7669 <__ZNKSt3__112basic_stringIcNS_11char_traitsIcEENS_9allocatorIcEEE13get_allocatorEv>
100000e7b:	48 8d 75 e8 	leaq	-24(%rbp), %rsi
100000e7f:	48 8b 7d b8 	movq	-72(%rbp), %rdi
100000e83:	e8 08 1e 00 00 	callq	7688 <__ZNSt3__112basic_stringIcNS_11char_traitsIcEENS_9allocatorIcEEEC1ERKS4_>
100000e88:	48 8b 7d f8 	movq	-8(%rbp), %rdi
100000e8c:	e8 2f 1e 00 00 	callq	7727 <__ZNKSt3__112basic_stringIcNS_11char_traitsIcEENS_9allocatorIcEEE4sizeEv>
100000e91:	48 89 45 d8 	movq	%rax, -40(%rbp)
100000e95:	48 8b 7d f0 	movq	-16(%rbp), %rdi
100000e99:	e8 46 2b 00 00 	callq	11078 <dyld_stub_binder+0x1000039e4>
100000e9e:	48 89 45 d0 	movq	%rax, -48(%rbp)
100000ea2:	48 8b 7d f8 	movq	-8(%rbp), %rdi
100000ea6:	e8 65 1e 00 00 	callq	7781 <__ZNKSt3__112basic_stringIcNS_11char_traitsIcEENS_9allocatorIcEEE4dataEv>
100000eab:	48 8b 55 d8 	movq	-40(%rbp), %rdx
100000eaf:	48 8b 75 d0 	movq	-48(%rbp), %rsi
100000eb3:	48 89 d7 	movq	%rdx, %rdi
100000eb6:	48 01 f7 	addq	%rsi, %rdi
100000eb9:	48 8b 75 b8 	movq	-72(%rbp), %rsi
100000ebd:	48 89 7d a8 	movq	%rdi, -88(%rbp)
100000ec1:	48 89 f7 	movq	%rsi, %rdi
100000ec4:	48 89 c6 	movq	%rax, %rsi
100000ec7:	48 8b 4d a8 	movq	-88(%rbp), %rcx
100000ecb:	e8 20 2b 00 00 	callq	11040 <dyld_stub_binder+0x1000039f0>
100000ed0:	e9 00 00 00 00 	jmp	0 <__ZNSt3__1plIcNS_11char_traitsIcEENS_9allocatorIcEEEENS_12basic_stringIT_T0_T1_EERKS9_PKS6_+0x85>
100000ed5:	48 8b 75 f0 	movq	-16(%rbp), %rsi
100000ed9:	48 8b 55 d0 	movq	-48(%rbp), %rdx
100000edd:	48 8b 7d b8 	movq	-72(%rbp), %rdi
100000ee1:	e8 16 2b 00 00 	callq	11030 <dyld_stub_binder+0x1000039fc>
100000ee6:	48 89 45 a0 	movq	%rax, -96(%rbp)
100000eea:	e9 00 00 00 00 	jmp	0 <__ZNSt3__1plIcNS_11char_traitsIcEENS_9allocatorIcEEEENS_12basic_stringIT_T0_T1_EERKS9_PKS6_+0x9f>
100000eef:	c6 45 ef 01 	movb	$1, -17(%rbp)
100000ef3:	f6 45 ef 01 	testb	$1, -17(%rbp)
100000ef7:	0f 85 25 00 00 00 	jne	37 <__ZNSt3__1plIcNS_11char_traitsIcEENS_9allocatorIcEEEENS_12basic_stringIT_T0_T1_EERKS9_PKS6_+0xd2>
100000efd:	e9 17 00 00 00 	jmp	23 <__ZNSt3__1plIcNS_11char_traitsIcEENS_9allocatorIcEEEENS_12basic_stringIT_T0_T1_EERKS9_PKS6_+0xc9>
100000f02:	89 d1 	movl	%edx, %ecx
100000f04:	48 89 45 c8 	movq	%rax, -56(%rbp)
100000f08:	89 4d c4 	movl	%ecx, -60(%rbp)
100000f0b:	48 8b 7d b8 	movq	-72(%rbp), %rdi
100000f0f:	e8 f4 2a 00 00 	callq	10996 <dyld_stub_binder+0x100003a08>
100000f14:	e9 13 00 00 00 	jmp	19 <__ZNSt3__1plIcNS_11char_traitsIcEENS_9allocatorIcEEEENS_12basic_stringIT_T0_T1_EERKS9_PKS6_+0xdc>
100000f19:	48 8b 7d b8 	movq	-72(%rbp), %rdi
100000f1d:	e8 e6 2a 00 00 	callq	10982 <dyld_stub_binder+0x100003a08>
100000f22:	48 8b 45 b0 	movq	-80(%rbp), %rax
100000f26:	48 83 c4 70 	addq	$112, %rsp
100000f2a:	5d 	popq	%rbp
100000f2b:	c3 	retq
100000f2c:	e9 00 00 00 00 	jmp	0 <__ZNSt3__1plIcNS_11char_traitsIcEENS_9allocatorIcEEEENS_12basic_stringIT_T0_T1_EERKS9_PKS6_+0xe1>
100000f31:	48 8b 7d c8 	movq	-56(%rbp), %rdi
100000f35:	e8 7a 2a 00 00 	callq	10874 <dyld_stub_binder+0x1000039b4>
100000f3a:	0f 0b 	ud2
100000f3c:	48 89 c7 	movq	%rax, %rdi
100000f3f:	48 89 55 98 	movq	%rdx, -104(%rbp)
100000f43:	e8 a8 fe ff ff 	callq	-344 <___clang_call_terminate>
100000f48:	0f 1f 84 00 00 00 00 00 	nopl	(%rax,%rax)
100000f50:	55 	pushq	%rbp
100000f51:	48 89 e5 	movq	%rsp, %rbp
100000f54:	48 89 7d f8 	movq	%rdi, -8(%rbp)
100000f58:	48 89 75 f0 	movq	%rsi, -16(%rbp)
100000f5c:	48 8b 75 f8 	movq	-8(%rbp), %rsi
100000f60:	48 8b 36 	movq	(%rsi), %rsi
100000f63:	48 6b 7d f0 18 	imulq	$24, -16(%rbp), %rdi
100000f68:	48 01 fe 	addq	%rdi, %rsi
100000f6b:	48 89 f0 	movq	%rsi, %rax
100000f6e:	5d 	popq	%rbp
100000f6f:	c3 	retq
100000f70:	55 	pushq	%rbp
100000f71:	48 89 e5 	movq	%rsp, %rbp
100000f74:	48 83 ec 10 	subq	$16, %rsp
100000f78:	48 89 7d f8 	movq	%rdi, -8(%rbp)
100000f7c:	48 89 75 f0 	movq	%rsi, -16(%rbp)
100000f80:	48 8b 7d f8 	movq	-8(%rbp), %rdi
100000f84:	48 8b 75 f0 	movq	-16(%rbp), %rsi
100000f88:	e8 13 19 00 00 	callq	6419 <__ZNSt3__16vectorINS_12basic_stringIcNS_11char_traitsIcEENS_9allocatorIcEEEENS4_IS6_EEEC2ERKS8_>
100000f8d:	48 83 c4 10 	addq	$16, %rsp
100000f91:	5d 	popq	%rbp
100000f92:	c3 	retq
100000f93:	66 2e 0f 1f 84 00 00 00 00 00 	nopw	%cs:(%rax,%rax)
100000f9d:	0f 1f 00 	nopl	(%rax)
100000fa0:	55 	pushq	%rbp
100000fa1:	48 89 e5 	movq	%rsp, %rbp
100000fa4:	48 83 ec 70 	subq	$112, %rsp
100000fa8:	48 8b 3d 69 30 00 00 	movq	12393(%rip), %rdi
100000faf:	c7 45 fc 00 00 00 00 	movl	$0, -4(%rbp)
100000fb6:	48 8d 35 85 2e 00 00 	leaq	11909(%rip), %rsi
100000fbd:	e8 a6 2a 00 00 	callq	10918 <dyld_stub_binder+0x100003a68>
100000fc2:	48 8b 3d 47 30 00 00 	movq	12359(%rip), %rdi
100000fc9:	48 8d 75 f8 	leaq	-8(%rbp), %rsi
100000fcd:	48 89 45 c0 	movq	%rax, -64(%rbp)
100000fd1:	e8 38 2a 00 00 	callq	10808 <dyld_stub_binder+0x100003a0e>
100000fd6:	8b 75 f8 	movl	-8(%rbp), %esi
100000fd9:	48 8d 7d e0 	leaq	-32(%rbp), %rdi
100000fdd:	48 89 45 b8 	movq	%rax, -72(%rbp)
100000fe1:	e8 9a f9 ff ff 	callq	-1638 <__Z4treei>
100000fe6:	48 63 45 dc 	movslq	-36(%rbp), %rax
100000fea:	48 8d 7d e0 	leaq	-32(%rbp), %rdi
100000fee:	48 89 45 b0 	movq	%rax, -80(%rbp)
100000ff2:	e8 29 fe ff ff 	callq	-471 <__ZNKSt3__16vectorINS_12basic_stringIcNS_11char_traitsIcEENS_9allocatorIcEEEENS4_IS6_EEE4sizeEv>
100000ff7:	48 8b 7d b0 	movq	-80(%rbp), %rdi
100000ffb:	48 39 c7 	cmpq	%rax, %rdi
100000ffe:	0f 83 72 00 00 00 	jae	114 <_main+0xd6>
100001004:	48 63 75 dc 	movslq	-36(%rbp), %rsi
100001008:	48 8d 7d e0 	leaq	-32(%rbp), %rdi
10000100c:	e8 3f ff ff ff 	callq	-193 <__ZNSt3__16vectorINS_12basic_stringIcNS_11char_traitsIcEENS_9allocatorIcEEEENS4_IS6_EEEixEm>
100001011:	48 89 45 a8 	movq	%rax, -88(%rbp)
100001015:	e9 00 00 00 00 	jmp	0 <_main+0x7a>
10000101a:	48 8b 3d f7 2f 00 00 	movq	12279(%rip), %rdi
100001021:	48 8b 75 a8 	movq	-88(%rbp), %rsi
100001025:	e8 44 2a 00 00 	callq	10820 <dyld_stub_binder+0x100003a6e>
10000102a:	48 89 45 a0 	movq	%rax, -96(%rbp)
10000102e:	e9 00 00 00 00 	jmp	0 <_main+0x93>
100001033:	48 8d 35 36 01 00 00 	leaq	310(%rip), %rsi
10000103a:	48 8b 7d a0 	movq	-96(%rbp), %rdi
10000103e:	e8 0d 01 00 00 	callq	269 <__ZNSt3__113basic_ostreamIcNS_11char_traitsIcEEElsEPFRS3_S4_E>
100001043:	48 89 45 98 	movq	%rax, -104(%rbp)
100001047:	e9 00 00 00 00 	jmp	0 <_main+0xac>
10000104c:	e9 00 00 00 00 	jmp	0 <_main+0xb1>
100001051:	8b 45 dc 	movl	-36(%rbp), %eax
100001054:	83 c0 01 	addl	$1, %eax
100001057:	89 45 dc 	movl	%eax, -36(%rbp)
10000105a:	e9 87 ff ff ff 	jmp	-121 <_main+0x46>
10000105f:	89 d1 	movl	%edx, %ecx
100001061:	48 89 45 d0 	movq	%rax, -48(%rbp)
100001065:	89 4d cc 	movl	%ecx, -52(%rbp)
100001068:	48 8d 7d e0 	leaq	-32(%rbp), %rdi
10000106c:	e8 8f fd ff ff 	callq	-625 <__ZNSt3__16vectorINS_12basic_stringIcNS_11char_traitsIcEENS_9allocatorIcEEEENS4_IS6_EEED1Ev>
100001071:	e9 19 00 00 00 	jmp	25 <_main+0xef>
100001076:	c7 45 fc 00 00 00 00 	movl	$0, -4(%rbp)
10000107d:	48 8d 7d e0 	leaq	-32(%rbp), %rdi
100001081:	e8 7a fd ff ff 	callq	-646 <__ZNSt3__16vectorINS_12basic_stringIcNS_11char_traitsIcEENS_9allocatorIcEEEENS4_IS6_EEED1Ev>
100001086:	8b 45 fc 	movl	-4(%rbp), %eax
100001089:	48 83 c4 70 	addq	$112, %rsp
10000108d:	5d 	popq	%rbp
10000108e:	c3 	retq
10000108f:	e9 00 00 00 00 	jmp	0 <_main+0xf4>
100001094:	48 8b 7d d0 	movq	-48(%rbp), %rdi
100001098:	e8 17 29 00 00 	callq	10519 <dyld_stub_binder+0x1000039b4>
10000109d:	0f 0b 	ud2
10000109f:	48 89 c7 	movq	%rax, %rdi
1000010a2:	48 89 55 90 	movq	%rdx, -112(%rbp)
1000010a6:	e8 45 fd ff ff 	callq	-699 <___clang_call_terminate>
1000010ab:	0f 1f 44 00 00 	nopl	(%rax,%rax)
1000010b0:	55 	pushq	%rbp
1000010b1:	48 89 e5 	movq	%rsp, %rbp
1000010b4:	48 83 ec 20 	subq	$32, %rsp
1000010b8:	48 89 7d f8 	movq	%rdi, -8(%rbp)
1000010bc:	48 89 75 f0 	movq	%rsi, -16(%rbp)
1000010c0:	48 8b 7d f8 	movq	-8(%rbp), %rdi
1000010c4:	48 8b 75 f0 	movq	-16(%rbp), %rsi
1000010c8:	48 8b 45 f0 	movq	-16(%rbp), %rax
1000010cc:	48 89 7d e8 	movq	%rdi, -24(%rbp)
1000010d0:	48 89 c7 	movq	%rax, %rdi
1000010d3:	48 89 75 e0 	movq	%rsi, -32(%rbp)
1000010d7:	e8 08 29 00 00 	callq	10504 <dyld_stub_binder+0x1000039e4>
1000010dc:	48 8b 7d e8 	movq	-24(%rbp), %rdi
1000010e0:	48 8b 75 e0 	movq	-32(%rbp), %rsi
1000010e4:	48 89 c2 	movq	%rax, %rdx
1000010e7:	e8 4c 29 00 00 	callq	10572 <dyld_stub_binder+0x100003a38>
1000010ec:	48 83 c4 20 	addq	$32, %rsp
1000010f0:	5d 	popq	%rbp
1000010f1:	c3 	retq
1000010f2:	66 2e 0f 1f 84 00 00 00 00 00 	nopw	%cs:(%rax,%rax)
1000010fc:	0f 1f 40 00 	nopl	(%rax)
100001100:	55 	pushq	%rbp
100001101:	48 89 e5 	movq	%rsp, %rbp
100001104:	48 83 ec 20 	subq	$32, %rsp
100001108:	48 89 7d f8 	movq	%rdi, -8(%rbp)
10000110c:	48 89 75 f0 	movq	%rsi, -16(%rbp)
100001110:	48 8b 7d f8 	movq	-8(%rbp), %rdi
100001114:	48 8b 75 f0 	movq	-16(%rbp), %rsi
100001118:	48 89 7d e8 	movq	%rdi, -24(%rbp)
10000111c:	48 89 f7 	movq	%rsi, %rdi
10000111f:	e8 ec 1b 00 00 	callq	7148 <__ZNKSt3__112basic_stringIcNS_11char_traitsIcEENS_9allocatorIcEEE4dataEv>
100001124:	48 8b 7d f0 	movq	-16(%rbp), %rdi
100001128:	48 89 45 e0 	movq	%rax, -32(%rbp)
10000112c:	e8 8f 1b 00 00 	callq	7055 <__ZNKSt3__112basic_stringIcNS_11char_traitsIcEENS_9allocatorIcEEE4sizeEv>
100001131:	48 8b 7d e8 	movq	-24(%rbp), %rdi
100001135:	48 8b 75 e0 	movq	-32(%rbp), %rsi
100001139:	48 89 c2 	movq	%rax, %rdx
10000113c:	e8 f7 28 00 00 	callq	10487 <dyld_stub_binder+0x100003a38>
100001141:	48 83 c4 20 	addq	$32, %rsp
100001145:	5d 	popq	%rbp
100001146:	c3 	retq
100001147:	66 0f 1f 84 00 00 00 00 00 	nopw	(%rax,%rax)
100001150:	55 	pushq	%rbp
100001151:	48 89 e5 	movq	%rsp, %rbp
100001154:	48 83 ec 10 	subq	$16, %rsp
100001158:	48 89 7d f8 	movq	%rdi, -8(%rbp)
10000115c:	48 89 75 f0 	movq	%rsi, -16(%rbp)
100001160:	48 8b 7d f8 	movq	-8(%rbp), %rdi
100001164:	ff 55 f0 	callq	*-16(%rbp)
100001167:	48 83 c4 10 	addq	$16, %rsp
10000116b:	5d 	popq	%rbp
10000116c:	c3 	retq
10000116d:	0f 1f 00 	nopl	(%rax)
100001170:	55 	pushq	%rbp
100001171:	48 89 e5 	movq	%rsp, %rbp
100001174:	48 83 ec 20 	subq	$32, %rsp
100001178:	48 89 7d f8 	movq	%rdi, -8(%rbp)
10000117c:	48 8b 7d f8 	movq	-8(%rbp), %rdi
100001180:	48 8b 45 f8 	movq	-8(%rbp), %rax
100001184:	48 8b 08 	movq	(%rax), %rcx
100001187:	48 8b 49 e8 	movq	-24(%rcx), %rcx
10000118b:	48 01 c8 	addq	%rcx, %rax
10000118e:	48 89 7d f0 	movq	%rdi, -16(%rbp)
100001192:	48 89 c7 	movq	%rax, %rdi
100001195:	be 0a 00 00 00 	movl	$10, %esi
10000119a:	e8 f1 26 00 00 	callq	9969 <__ZNKSt3__19basic_iosIcNS_11char_traitsIcEEE5widenEc>
10000119f:	48 8b 7d f0 	movq	-16(%rbp), %rdi
1000011a3:	0f be f0 	movsbl	%al, %esi
1000011a6:	e8 69 28 00 00 	callq	10345 <dyld_stub_binder+0x100003a14>
1000011ab:	48 8b 7d f8 	movq	-8(%rbp), %rdi
1000011af:	48 89 45 e8 	movq	%rax, -24(%rbp)
1000011b3:	e8 62 28 00 00 	callq	10338 <dyld_stub_binder+0x100003a1a>
1000011b8:	48 8b 4d f8 	movq	-8(%rbp), %rcx
1000011bc:	48 89 45 e0 	movq	%rax, -32(%rbp)
1000011c0:	48 89 c8 	movq	%rcx, %rax
1000011c3:	48 83 c4 20 	addq	$32, %rsp
1000011c7:	5d 	popq	%rbp
1000011c8:	c3 	retq
1000011c9:	0f 1f 80 00 00 00 00 	nopl	(%rax)
1000011d0:	55 	pushq	%rbp
1000011d1:	48 89 e5 	movq	%rsp, %rbp
1000011d4:	48 83 ec 10 	subq	$16, %rsp
1000011d8:	48 89 7d f8 	movq	%rdi, -8(%rbp)
1000011dc:	48 8b 7d f8 	movq	-8(%rbp), %rdi
1000011e0:	e8 0b 00 00 00 	callq	11 <__ZNSt3__113__vector_baseINS_12basic_stringIcNS_11char_traitsIcEENS_9allocatorIcEEEENS4_IS6_EEEC2Ev>
1000011e5:	48 83 c4 10 	addq	$16, %rsp
1000011e9:	5d 	popq	%rbp
1000011ea:	c3 	retq
1000011eb:	0f 1f 44 00 00 	nopl	(%rax,%rax)
1000011f0:	55 	pushq	%rbp
1000011f1:	48 89 e5 	movq	%rsp, %rbp
1000011f4:	48 83 ec 30 	subq	$48, %rsp
1000011f8:	48 89 7d f8 	movq	%rdi, -8(%rbp)
1000011fc:	48 8b 7d f8 	movq	-8(%rbp), %rdi
100001200:	48 89 f8 	movq	%rdi, %rax
100001203:	48 89 7d d8 	movq	%rdi, -40(%rbp)
100001207:	48 89 c7 	movq	%rax, %rdi
10000120a:	e8 61 00 00 00 	callq	97 <__ZNSt3__120__vector_base_commonILb1EEC2Ev>
10000120f:	e8 6c 00 00 00 	callq	108 <__ZNSt3__1L15__get_nullptr_tEv>
100001214:	48 89 45 f0 	movq	%rax, -16(%rbp)
100001218:	48 8d 7d f0 	leaq	-16(%rbp), %rdi
10000121c:	e8 8f 00 00 00 	callq	143 <__ZNKSt3__19nullptr_tcvPT_INS_12basic_stringIcNS_11char_traitsIcEENS_9allocatorIcEEEEEEv>
100001221:	48 8b 7d d8 	movq	-40(%rbp), %rdi
100001225:	48 89 07 	movq	%rax, (%rdi)
100001228:	e8 53 00 00 00 	callq	83 <__ZNSt3__1L15__get_nullptr_tEv>
10000122d:	48 89 45 e8 	movq	%rax, -24(%rbp)
100001231:	48 8d 7d e8 	leaq	-24(%rbp), %rdi
100001235:	e8 76 00 00 00 	callq	118 <__ZNKSt3__19nullptr_tcvPT_INS_12basic_stringIcNS_11char_traitsIcEENS_9allocatorIcEEEEEEv>
10000123a:	48 8b 7d d8 	movq	-40(%rbp), %rdi
10000123e:	48 89 47 08 	movq	%rax, 8(%rdi)
100001242:	48 83 c7 10 	addq	$16, %rdi
100001246:	48 89 7d d0 	movq	%rdi, -48(%rbp)
10000124a:	e8 31 00 00 00 	callq	49 <__ZNSt3__1L15__get_nullptr_tEv>
10000124f:	48 89 45 e0 	movq	%rax, -32(%rbp)
100001253:	48 8d 7d e0 	leaq	-32(%rbp), %rdi
100001257:	e8 54 00 00 00 	callq	84 <__ZNKSt3__19nullptr_tcvPT_INS_12basic_stringIcNS_11char_traitsIcEENS_9allocatorIcEEEEEEv>
10000125c:	48 8b 7d d0 	movq	-48(%rbp), %rdi
100001260:	48 89 c6 	movq	%rax, %rsi
100001263:	e8 58 00 00 00 	callq	88 <__ZNSt3__117__compressed_pairIPNS_12basic_stringIcNS_11char_traitsIcEENS_9allocatorIcEEEENS4_IS6_EEEC1ES7_>
100001268:	48 83 c4 30 	addq	$48, %rsp
10000126c:	5d 	popq	%rbp
10000126d:	c3 	retq
10000126e:	66 90 	nop
100001270:	55 	pushq	%rbp
100001271:	48 89 e5 	movq	%rsp, %rbp
100001274:	48 89 7d f8 	movq	%rdi, -8(%rbp)
100001278:	5d 	popq	%rbp
100001279:	c3 	retq
10000127a:	66 0f 1f 44 00 00 	nopw	(%rax,%rax)
100001280:	55 	pushq	%rbp
100001281:	48 89 e5 	movq	%rsp, %rbp
100001284:	48 83 ec 10 	subq	$16, %rsp
100001288:	48 8d 7d f8 	leaq	-8(%rbp), %rdi
10000128c:	48 c7 c6 ff ff ff ff 	movq	$-1, %rsi
100001293:	e8 58 00 00 00 	callq	88 <__ZNSt3__19nullptr_tC1EMNS0_5__natEi>
100001298:	48 8b 45 f8 	movq	-8(%rbp), %rax
10000129c:	48 83 c4 10 	addq	$16, %rsp
1000012a0:	5d 	popq	%rbp
1000012a1:	c3 	retq
1000012a2:	66 2e 0f 1f 84 00 00 00 00 00 	nopw	%cs:(%rax,%rax)
1000012ac:	0f 1f 40 00 	nopl	(%rax)
1000012b0:	55 	pushq	%rbp
1000012b1:	48 89 e5 	movq	%rsp, %rbp
1000012b4:	31 c0 	xorl	%eax, %eax
1000012b6:	48 89 7d f8 	movq	%rdi, -8(%rbp)
1000012ba:	5d 	popq	%rbp
1000012bb:	c3 	retq
1000012bc:	0f 1f 40 00 	nopl	(%rax)
1000012c0:	55 	pushq	%rbp
1000012c1:	48 89 e5 	movq	%rsp, %rbp
1000012c4:	48 83 ec 10 	subq	$16, %rsp
1000012c8:	48 89 7d f8 	movq	%rdi, -8(%rbp)
1000012cc:	48 89 75 f0 	movq	%rsi, -16(%rbp)
1000012d0:	48 8b 7d f8 	movq	-8(%rbp), %rdi
1000012d4:	48 8b 75 f0 	movq	-16(%rbp), %rsi
1000012d8:	e8 63 00 00 00 	callq	99 <__ZNSt3__117__compressed_pairIPNS_12basic_stringIcNS_11char_traitsIcEENS_9allocatorIcEEEENS4_IS6_EEEC2ES7_>
1000012dd:	48 83 c4 10 	addq	$16, %rsp
1000012e1:	5d 	popq	%rbp
1000012e2:	c3 	retq
1000012e3:	66 2e 0f 1f 84 00 00 00 00 00 	nopw	%cs:(%rax,%rax)
1000012ed:	0f 1f 00 	nopl	(%rax)
1000012f0:	55 	pushq	%rbp
1000012f1:	48 89 e5 	movq	%rsp, %rbp
1000012f4:	48 83 ec 10 	subq	$16, %rsp
1000012f8:	48 89 7d f8 	movq	%rdi, -8(%rbp)
1000012fc:	48 89 75 f0 	movq	%rsi, -16(%rbp)
100001300:	48 8b 7d f8 	movq	-8(%rbp), %rdi
100001304:	48 8b 75 f0 	movq	-16(%rbp), %rsi
100001308:	e8 13 00 00 00 	callq	19 <__ZNSt3__19nullptr_tC2EMNS0_5__natEi>
10000130d:	48 83 c4 10 	addq	$16, %rsp
100001311:	5d 	popq	%rbp
100001312:	c3 	retq
100001313:	66 2e 0f 1f 84 00 00 00 00 00 	nopw	%cs:(%rax,%rax)
10000131d:	0f 1f 00 	nopl	(%rax)
100001320:	55 	pushq	%rbp
100001321:	48 89 e5 	movq	%rsp, %rbp
100001324:	48 89 7d f8 	movq	%rdi, -8(%rbp)
100001328:	48 89 75 f0 	movq	%rsi, -16(%rbp)
10000132c:	48 8b 75 f8 	movq	-8(%rbp), %rsi
100001330:	48 c7 06 00 00 00 00 	movq	$0, (%rsi)
100001337:	5d 	popq	%rbp
100001338:	c3 	retq
100001339:	0f 1f 80 00 00 00 00 	nopl	(%rax)
100001340:	55 	pushq	%rbp
100001341:	48 89 e5 	movq	%rsp, %rbp
100001344:	48 83 ec 20 	subq	$32, %rsp
100001348:	48 89 7d f8 	movq	%rdi, -8(%rbp)
10000134c:	48 89 75 f0 	movq	%rsi, -16(%rbp)
100001350:	48 8b 75 f8 	movq	-8(%rbp), %rsi
100001354:	48 89 f7 	movq	%rsi, %rdi
100001357:	48 8d 45 f0 	leaq	-16(%rbp), %rax
10000135b:	48 89 7d e8 	movq	%rdi, -24(%rbp)
10000135f:	48 89 c7 	movq	%rax, %rdi
100001362:	48 89 75 e0 	movq	%rsi, -32(%rbp)
100001366:	e8 25 00 00 00 	callq	37 <__ZNSt3__1L7forwardIPNS_12basic_stringIcNS_11char_traitsIcEENS_9allocatorIcEEEEEERT_RNS_16remove_referenceIS8_E4typeE>
10000136b:	48 8b 30 	movq	(%rax), %rsi
10000136e:	48 8b 7d e8 	movq	-24(%rbp), %rdi
100001372:	e8 29 00 00 00 	callq	41 <__ZNSt3__122__compressed_pair_elemIPNS_12basic_stringIcNS_11char_traitsIcEENS_9allocatorIcEEEELi0ELb0EEC2ES7_>
100001377:	48 8b 45 e0 	movq	-32(%rbp), %rax
10000137b:	48 89 c7 	movq	%rax, %rdi
10000137e:	e8 5d 00 00 00 	callq	93 <__ZNSt3__122__compressed_pair_elemINS_9allocatorINS_12basic_stringIcNS_11char_traitsIcEENS1_IcEEEEEELi1ELb1EEC2Ev>
100001383:	48 83 c4 20 	addq	$32, %rsp
100001387:	5d 	popq	%rbp
100001388:	c3 	retq
100001389:	0f 1f 80 00 00 00 00 	nopl	(%rax)
100001390:	55 	pushq	%rbp
100001391:	48 89 e5 	movq	%rsp, %rbp
100001394:	48 89 7d f8 	movq	%rdi, -8(%rbp)
100001398:	48 8b 45 f8 	movq	-8(%rbp), %rax
10000139c:	5d 	popq	%rbp
10000139d:	c3 	retq
10000139e:	66 90 	nop
1000013a0:	55 	pushq	%rbp
1000013a1:	48 89 e5 	movq	%rsp, %rbp
1000013a4:	48 83 ec 20 	subq	$32, %rsp
1000013a8:	48 89 7d f8 	movq	%rdi, -8(%rbp)
1000013ac:	48 89 75 f0 	movq	%rsi, -16(%rbp)
1000013b0:	48 8b 75 f8 	movq	-8(%rbp), %rsi
1000013b4:	48 8d 7d f0 	leaq	-16(%rbp), %rdi
1000013b8:	48 89 75 e8 	movq	%rsi, -24(%rbp)
1000013bc:	e8 cf ff ff ff 	callq	-49 <__ZNSt3__1L7forwardIPNS_12basic_stringIcNS_11char_traitsIcEENS_9allocatorIcEEEEEERT_RNS_16remove_referenceIS8_E4typeE>
1000013c1:	48 8b 00 	movq	(%rax), %rax
1000013c4:	48 8b 75 e8 	movq	-24(%rbp), %rsi
1000013c8:	48 89 06 	movq	%rax, (%rsi)
1000013cb:	48 83 c4 20 	addq	$32, %rsp
1000013cf:	5d 	popq	%rbp
1000013d0:	c3 	retq
1000013d1:	66 2e 0f 1f 84 00 00 00 00 00 	nopw	%cs:(%rax,%rax)
1000013db:	0f 1f 44 00 00 	nopl	(%rax,%rax)
1000013e0:	55 	pushq	%rbp
1000013e1:	48 89 e5 	movq	%rsp, %rbp
1000013e4:	48 83 ec 10 	subq	$16, %rsp
1000013e8:	48 89 7d f8 	movq	%rdi, -8(%rbp)
1000013ec:	48 8b 7d f8 	movq	-8(%rbp), %rdi
1000013f0:	e8 0b 00 00 00 	callq	11 <__ZNSt3__19allocatorINS_12basic_stringIcNS_11char_traitsIcEENS0_IcEEEEEC2Ev>
1000013f5:	48 83 c4 10 	addq	$16, %rsp
1000013f9:	5d 	popq	%rbp
1000013fa:	c3 	retq
1000013fb:	0f 1f 44 00 00 	nopl	(%rax,%rax)
100001400:	55 	pushq	%rbp
100001401:	48 89 e5 	movq	%rsp, %rbp
100001404:	48 89 7d f8 	movq	%rdi, -8(%rbp)
100001408:	5d 	popq	%rbp
100001409:	c3 	retq
10000140a:	66 0f 1f 44 00 00 	nopw	(%rax,%rax)
100001410:	55 	pushq	%rbp
100001411:	48 89 e5 	movq	%rsp, %rbp
100001414:	48 83 ec 30 	subq	$48, %rsp
100001418:	48 89 7d f8 	movq	%rdi, -8(%rbp)
10000141c:	48 8b 7d f8 	movq	-8(%rbp), %rdi
100001420:	48 89 7d e0 	movq	%rdi, -32(%rbp)
100001424:	e8 57 00 00 00 	callq	87 <__ZNKSt3__16vectorINS_12basic_stringIcNS_11char_traitsIcEENS_9allocatorIcEEEENS4_IS6_EEE17__annotate_deleteEv>
100001429:	e9 00 00 00 00 	jmp	0 <__ZNSt3__16vectorINS_12basic_stringIcNS_11char_traitsIcEENS_9allocatorIcEEEENS4_IS6_EEED2Ev+0x1e>
10000142e:	48 8b 45 e0 	movq	-32(%rbp), %rax
100001432:	48 89 c7 	movq	%rax, %rdi
100001435:	e8 06 01 00 00 	callq	262 <__ZNSt3__113__vector_baseINS_12basic_stringIcNS_11char_traitsIcEENS_9allocatorIcEEEENS4_IS6_EEED2Ev>
10000143a:	48 83 c4 30 	addq	$48, %rsp
10000143e:	5d 	popq	%rbp
10000143f:	c3 	retq
100001440:	89 d1 	movl	%edx, %ecx
100001442:	48 89 45 f0 	movq	%rax, -16(%rbp)
100001446:	89 4d ec 	movl	%ecx, -20(%rbp)
100001449:	48 8b 7d e0 	movq	-32(%rbp), %rdi
10000144d:	e8 ee 00 00 00 	callq	238 <__ZNSt3__113__vector_baseINS_12basic_stringIcNS_11char_traitsIcEENS_9allocatorIcEEEENS4_IS6_EEED2Ev>
100001452:	e9 00 00 00 00 	jmp	0 <__ZNSt3__16vectorINS_12basic_stringIcNS_11char_traitsIcEENS_9allocatorIcEEEENS4_IS6_EEED2Ev+0x47>
100001457:	e9 00 00 00 00 	jmp	0 <__ZNSt3__16vectorINS_12basic_stringIcNS_11char_traitsIcEENS_9allocatorIcEEEENS4_IS6_EEED2Ev+0x4c>
10000145c:	48 8b 7d f0 	movq	-16(%rbp), %rdi
100001460:	e8 4f 25 00 00 	callq	9551 <dyld_stub_binder+0x1000039b4>
100001465:	0f 0b 	ud2
100001467:	48 89 c7 	movq	%rax, %rdi
10000146a:	48 89 55 d8 	movq	%rdx, -40(%rbp)
10000146e:	e8 7d f9 ff ff 	callq	-1667 <___clang_call_terminate>
100001473:	66 2e 0f 1f 84 00 00 00 00 00 	nopw	%cs:(%rax,%rax)
10000147d:	0f 1f 00 	nopl	(%rax)
100001480:	55 	pushq	%rbp
100001481:	48 89 e5 	movq	%rsp, %rbp
100001484:	48 83 ec 50 	subq	$80, %rsp
100001488:	48 89 7d f8 	movq	%rdi, -8(%rbp)
10000148c:	48 8b 7d f8 	movq	-8(%rbp), %rdi
100001490:	48 89 7d f0 	movq	%rdi, -16(%rbp)
100001494:	e8 47 01 00 00 	callq	327 <__ZNKSt3__16vectorINS_12basic_stringIcNS_11char_traitsIcEENS_9allocatorIcEEEENS4_IS6_EEE4dataEv>
100001499:	48 8b 7d f0 	movq	-16(%rbp), %rdi
10000149d:	48 89 45 e8 	movq	%rax, -24(%rbp)
1000014a1:	e8 3a 01 00 00 	callq	314 <__ZNKSt3__16vectorINS_12basic_stringIcNS_11char_traitsIcEENS_9allocatorIcEEEENS4_IS6_EEE4dataEv>
1000014a6:	48 8b 7d f0 	movq	-16(%rbp), %rdi
1000014aa:	48 89 45 e0 	movq	%rax, -32(%rbp)
1000014ae:	e8 4d 01 00 00 	callq	333 <__ZNKSt3__16vectorINS_12basic_stringIcNS_11char_traitsIcEENS_9allocatorIcEEEENS4_IS6_EEE8capacityEv>
1000014b3:	48 6b c0 18 	imulq	$24, %rax, %rax
1000014b7:	48 8b 7d e0 	movq	-32(%rbp), %rdi
1000014bb:	48 01 c7 	addq	%rax, %rdi
1000014be:	48 8b 45 f0 	movq	-16(%rbp), %rax
1000014c2:	48 89 7d d8 	movq	%rdi, -40(%rbp)
1000014c6:	48 89 c7 	movq	%rax, %rdi
1000014c9:	e8 12 01 00 00 	callq	274 <__ZNKSt3__16vectorINS_12basic_stringIcNS_11char_traitsIcEENS_9allocatorIcEEEENS4_IS6_EEE4dataEv>
1000014ce:	48 8b 7d f0 	movq	-16(%rbp), %rdi
1000014d2:	48 89 45 d0 	movq	%rax, -48(%rbp)
1000014d6:	e8 45 f9 ff ff 	callq	-1723 <__ZNKSt3__16vectorINS_12basic_stringIcNS_11char_traitsIcEENS_9allocatorIcEEEENS4_IS6_EEE4sizeEv>
1000014db:	48 6b c0 18 	imulq	$24, %rax, %rax
1000014df:	48 8b 7d d0 	movq	-48(%rbp), %rdi
1000014e3:	48 01 c7 	addq	%rax, %rdi
1000014e6:	48 8b 45 f0 	movq	-16(%rbp), %rax
1000014ea:	48 89 7d c8 	movq	%rdi, -56(%rbp)
1000014ee:	48 89 c7 	movq	%rax, %rdi
1000014f1:	e8 ea 00 00 00 	callq	234 <__ZNKSt3__16vectorINS_12basic_stringIcNS_11char_traitsIcEENS_9allocatorIcEEEENS4_IS6_EEE4dataEv>
1000014f6:	48 8b 7d f0 	movq	-16(%rbp), %rdi
1000014fa:	48 89 45 c0 	movq	%rax, -64(%rbp)
1000014fe:	e8 fd 00 00 00 	callq	253 <__ZNKSt3__16vectorINS_12basic_stringIcNS_11char_traitsIcEENS_9allocatorIcEEEENS4_IS6_EEE8capacityEv>
100001503:	48 6b c0 18 	imulq	$24, %rax, %rax
100001507:	48 8b 7d c0 	movq	-64(%rbp), %rdi
10000150b:	48 01 c7 	addq	%rax, %rdi
10000150e:	48 8b 45 f0 	movq	-16(%rbp), %rax
100001512:	48 89 7d b8 	movq	%rdi, -72(%rbp)
100001516:	48 89 c7 	movq	%rax, %rdi
100001519:	48 8b 75 e8 	movq	-24(%rbp), %rsi
10000151d:	48 8b 55 d8 	movq	-40(%rbp), %rdx
100001521:	48 8b 4d c8 	movq	-56(%rbp), %rcx
100001525:	4c 8b 45 b8 	movq	-72(%rbp), %r8
100001529:	e8 92 00 00 00 	callq	146 <__ZNKSt3__16vectorINS_12basic_stringIcNS_11char_traitsIcEENS_9allocatorIcEEEENS4_IS6_EEE31__annotate_contiguous_containerEPKvSA_SA_SA_>
10000152e:	48 83 c4 50 	addq	$80, %rsp
100001532:	5d 	popq	%rbp
100001533:	c3 	retq
100001534:	66 2e 0f 1f 84 00 00 00 00 00 	nopw	%cs:(%rax,%rax)
10000153e:	66 90 	nop
100001540:	55 	pushq	%rbp
100001541:	48 89 e5 	movq	%rsp, %rbp
100001544:	48 83 ec 30 	subq	$48, %rsp
100001548:	48 89 7d f8 	movq	%rdi, -8(%rbp)
10000154c:	48 8b 7d f8 	movq	-8(%rbp), %rdi
100001550:	48 8b 07 	movq	(%rdi), %rax
100001553:	48 89 7d e8 	movq	%rdi, -24(%rbp)
100001557:	48 89 45 e0 	movq	%rax, -32(%rbp)
10000155b:	e8 20 fd ff ff 	callq	-736 <__ZNSt3__1L15__get_nullptr_tEv>
100001560:	48 89 45 f0 	movq	%rax, -16(%rbp)
100001564:	48 8d 7d f0 	leaq	-16(%rbp), %rdi
100001568:	e8 43 fd ff ff 	callq	-701 <__ZNKSt3__19nullptr_tcvPT_INS_12basic_stringIcNS_11char_traitsIcEENS_9allocatorIcEEEEEEv>
10000156d:	48 8b 7d e0 	movq	-32(%rbp), %rdi
100001571:	48 39 c7 	cmpq	%rax, %rdi
100001574:	0f 84 36 00 00 00 	je	54 <__ZNSt3__113__vector_baseINS_12basic_stringIcNS_11char_traitsIcEENS_9allocatorIcEEEENS4_IS6_EEED2Ev+0x70>
10000157a:	48 8b 7d e8 	movq	-24(%rbp), %rdi
10000157e:	e8 3d 01 00 00 	callq	317 <__ZNSt3__113__vector_baseINS_12basic_stringIcNS_11char_traitsIcEENS_9allocatorIcEEEENS4_IS6_EEE5clearEv>
100001583:	48 8b 7d e8 	movq	-24(%rbp), %rdi
100001587:	e8 84 01 00 00 	callq	388 <__ZNSt3__113__vector_baseINS_12basic_stringIcNS_11char_traitsIcEENS_9allocatorIcEEEENS4_IS6_EEE7__allocEv>
10000158c:	48 8b 7d e8 	movq	-24(%rbp), %rdi
100001590:	48 8b 37 	movq	(%rdi), %rsi
100001593:	48 89 45 d8 	movq	%rax, -40(%rbp)
100001597:	48 89 75 d0 	movq	%rsi, -48(%rbp)
10000159b:	e8 90 00 00 00 	callq	144 <__ZNKSt3__113__vector_baseINS_12basic_stringIcNS_11char_traitsIcEENS_9allocatorIcEEEENS4_IS6_EEE8capacityEv>
1000015a0:	48 8b 7d d8 	movq	-40(%rbp), %rdi
1000015a4:	48 8b 75 d0 	movq	-48(%rbp), %rsi
1000015a8:	48 89 c2 	movq	%rax, %rdx
1000015ab:	e8 30 01 00 00 	callq	304 <__ZNSt3__116allocator_traitsINS_9allocatorINS_12basic_stringIcNS_11char_traitsIcEENS1_IcEEEEEEE10deallocateERS7_PS6_m>
1000015b0:	48 83 c4 30 	addq	$48, %rsp
1000015b4:	5d 	popq	%rbp
1000015b5:	c3 	retq
1000015b6:	66 2e 0f 1f 84 00 00 00 00 00 	nopw	%cs:(%rax,%rax)
1000015c0:	55 	pushq	%rbp
1000015c1:	48 89 e5 	movq	%rsp, %rbp
1000015c4:	48 89 7d f8 	movq	%rdi, -8(%rbp)
1000015c8:	48 89 75 f0 	movq	%rsi, -16(%rbp)
1000015cc:	48 89 55 e8 	movq	%rdx, -24(%rbp)
1000015d0:	48 89 4d e0 	movq	%rcx, -32(%rbp)
1000015d4:	4c 89 45 d8 	movq	%r8, -40(%rbp)
1000015d8:	5d 	popq	%rbp
1000015d9:	c3 	retq
1000015da:	66 0f 1f 44 00 00 	nopw	(%rax,%rax)
1000015e0:	55 	pushq	%rbp
1000015e1:	48 89 e5 	movq	%rsp, %rbp
1000015e4:	48 83 ec 10 	subq	$16, %rsp
1000015e8:	48 89 7d f8 	movq	%rdi, -8(%rbp)
1000015ec:	48 8b 7d f8 	movq	-8(%rbp), %rdi
1000015f0:	48 8b 3f 	movq	(%rdi), %rdi
1000015f3:	e8 28 00 00 00 	callq	40 <__ZNSt3__1L16__to_raw_pointerINS_12basic_stringIcNS_11char_traitsIcEENS_9allocatorIcEEEEEEPT_S8_>
1000015f8:	48 83 c4 10 	addq	$16, %rsp
1000015fc:	5d 	popq	%rbp
1000015fd:	c3 	retq
1000015fe:	66 90 	nop
100001600:	55 	pushq	%rbp
100001601:	48 89 e5 	movq	%rsp, %rbp
100001604:	48 83 ec 10 	subq	$16, %rsp
100001608:	48 89 7d f8 	movq	%rdi, -8(%rbp)
10000160c:	48 8b 7d f8 	movq	-8(%rbp), %rdi
100001610:	e8 1b 00 00 00 	callq	27 <__ZNKSt3__113__vector_baseINS_12basic_stringIcNS_11char_traitsIcEENS_9allocatorIcEEEENS4_IS6_EEE8capacityEv>
100001615:	48 83 c4 10 	addq	$16, %rsp
100001619:	5d 	popq	%rbp
10000161a:	c3 	retq
10000161b:	0f 1f 44 00 00 	nopl	(%rax,%rax)
100001620:	55 	pushq	%rbp
100001621:	48 89 e5 	movq	%rsp, %rbp
100001624:	48 89 7d f8 	movq	%rdi, -8(%rbp)
100001628:	48 8b 45 f8 	movq	-8(%rbp), %rax
10000162c:	5d 	popq	%rbp
10000162d:	c3 	retq
10000162e:	66 90 	nop
100001630:	55 	pushq	%rbp
100001631:	48 89 e5 	movq	%rsp, %rbp
100001634:	48 83 ec 10 	subq	$16, %rsp
100001638:	48 89 7d f8 	movq	%rdi, -8(%rbp)
10000163c:	48 8b 7d f8 	movq	-8(%rbp), %rdi
100001640:	48 89 7d f0 	movq	%rdi, -16(%rbp)
100001644:	e8 27 00 00 00 	callq	39 <__ZNKSt3__113__vector_baseINS_12basic_stringIcNS_11char_traitsIcEENS_9allocatorIcEEEENS4_IS6_EEE9__end_capEv>
100001649:	48 8b 00 	movq	(%rax), %rax
10000164c:	48 8b 7d f0 	movq	-16(%rbp), %rdi
100001650:	48 8b 0f 	movq	(%rdi), %rcx
100001653:	48 29 c8 	subq	%rcx, %rax
100001656:	48 99 	cqto
100001658:	b9 18 00 00 00 	movl	$24, %ecx
10000165d:	48 f7 f9 	idivq	%rcx
100001660:	48 83 c4 10 	addq	$16, %rsp
100001664:	5d 	popq	%rbp
100001665:	c3 	retq
100001666:	66 2e 0f 1f 84 00 00 00 00 00 	nopw	%cs:(%rax,%rax)
100001670:	55 	pushq	%rbp
100001671:	48 89 e5 	movq	%rsp, %rbp
100001674:	48 83 ec 10 	subq	$16, %rsp
100001678:	48 89 7d f8 	movq	%rdi, -8(%rbp)
10000167c:	48 8b 7d f8 	movq	-8(%rbp), %rdi
100001680:	48 83 c7 10 	addq	$16, %rdi
100001684:	e8 07 00 00 00 	callq	7 <__ZNKSt3__117__compressed_pairIPNS_12basic_stringIcNS_11char_traitsIcEENS_9allocatorIcEEEENS4_IS6_EEE5firstEv>
100001689:	48 83 c4 10 	addq	$16, %rsp
10000168d:	5d 	popq	%rbp
10000168e:	c3 	retq
10000168f:	90 	nop
100001690:	55 	pushq	%rbp
100001691:	48 89 e5 	movq	%rsp, %rbp
100001694:	48 83 ec 10 	subq	$16, %rsp
100001698:	48 89 7d f8 	movq	%rdi, -8(%rbp)
10000169c:	48 8b 7d f8 	movq	-8(%rbp), %rdi
1000016a0:	e8 0b 00 00 00 	callq	11 <__ZNKSt3__122__compressed_pair_elemIPNS_12basic_stringIcNS_11char_traitsIcEENS_9allocatorIcEEEELi0ELb0EE5__getEv>
1000016a5:	48 83 c4 10 	addq	$16, %rsp
1000016a9:	5d 	popq	%rbp
1000016aa:	c3 	retq
1000016ab:	0f 1f 44 00 00 	nopl	(%rax,%rax)
1000016b0:	55 	pushq	%rbp
1000016b1:	48 89 e5 	movq	%rsp, %rbp
1000016b4:	48 89 7d f8 	movq	%rdi, -8(%rbp)
1000016b8:	48 8b 45 f8 	movq	-8(%rbp), %rax
1000016bc:	5d 	popq	%rbp
1000016bd:	c3 	retq
1000016be:	66 90 	nop
1000016c0:	55 	pushq	%rbp
1000016c1:	48 89 e5 	movq	%rsp, %rbp
1000016c4:	48 83 ec 10 	subq	$16, %rsp
1000016c8:	48 89 7d f8 	movq	%rdi, -8(%rbp)
1000016cc:	48 8b 7d f8 	movq	-8(%rbp), %rdi
1000016d0:	48 8b 37 	movq	(%rdi), %rsi
1000016d3:	e8 58 00 00 00 	callq	88 <__ZNSt3__113__vector_baseINS_12basic_stringIcNS_11char_traitsIcEENS_9allocatorIcEEEENS4_IS6_EEE17__destruct_at_endEPS6_>
1000016d8:	48 83 c4 10 	addq	$16, %rsp
1000016dc:	5d 	popq	%rbp
1000016dd:	c3 	retq
1000016de:	66 90 	nop
1000016e0:	55 	pushq	%rbp
1000016e1:	48 89 e5 	movq	%rsp, %rbp
1000016e4:	48 83 ec 20 	subq	$32, %rsp
1000016e8:	48 89 7d f8 	movq	%rdi, -8(%rbp)
1000016ec:	48 89 75 f0 	movq	%rsi, -16(%rbp)
1000016f0:	48 89 55 e8 	movq	%rdx, -24(%rbp)
1000016f4:	48 8b 7d f8 	movq	-8(%rbp), %rdi
1000016f8:	48 8b 75 f0 	movq	-16(%rbp), %rsi
1000016fc:	48 8b 55 e8 	movq	-24(%rbp), %rdx
100001700:	e8 3b 01 00 00 	callq	315 <__ZNSt3__19allocatorINS_12basic_stringIcNS_11char_traitsIcEENS0_IcEEEEE10deallocateEPS5_m>
100001705:	48 83 c4 20 	addq	$32, %rsp
100001709:	5d 	popq	%rbp
10000170a:	c3 	retq
10000170b:	0f 1f 44 00 00 	nopl	(%rax,%rax)
100001710:	55 	pushq	%rbp
100001711:	48 89 e5 	movq	%rsp, %rbp
100001714:	48 83 ec 10 	subq	$16, %rsp
100001718:	48 89 7d f8 	movq	%rdi, -8(%rbp)
10000171c:	48 8b 7d f8 	movq	-8(%rbp), %rdi
100001720:	48 83 c7 10 	addq	$16, %rdi
100001724:	e8 07 02 00 00 	callq	519 <__ZNSt3__117__compressed_pairIPNS_12basic_stringIcNS_11char_traitsIcEENS_9allocatorIcEEEENS4_IS6_EEE6secondEv>
100001729:	48 83 c4 10 	addq	$16, %rsp
10000172d:	5d 	popq	%rbp
10000172e:	c3 	retq
10000172f:	90 	nop
100001730:	55 	pushq	%rbp
100001731:	48 89 e5 	movq	%rsp, %rbp
100001734:	48 83 ec 40 	subq	$64, %rsp
100001738:	48 89 7d f8 	movq	%rdi, -8(%rbp)
10000173c:	48 89 75 f0 	movq	%rsi, -16(%rbp)
100001740:	48 8b 75 f8 	movq	-8(%rbp), %rsi
100001744:	48 8b 7e 08 	movq	8(%rsi), %rdi
100001748:	48 89 7d e8 	movq	%rdi, -24(%rbp)
10000174c:	48 89 75 d0 	movq	%rsi, -48(%rbp)
100001750:	48 8b 45 f0 	movq	-16(%rbp), %rax
100001754:	48 3b 45 e8 	cmpq	-24(%rbp), %rax
100001758:	0f 84 46 00 00 00 	je	70 <__ZNSt3__113__vector_baseINS_12basic_stringIcNS_11char_traitsIcEENS_9allocatorIcEEEENS4_IS6_EEE17__destruct_at_endEPS6_+0x74>
10000175e:	48 8b 7d d0 	movq	-48(%rbp), %rdi
100001762:	e8 a9 ff ff ff 	callq	-87 <__ZNSt3__113__vector_baseINS_12basic_stringIcNS_11char_traitsIcEENS_9allocatorIcEEEENS4_IS6_EEE7__allocEv>
100001767:	48 8b 7d e8 	movq	-24(%rbp), %rdi
10000176b:	48 83 c7 e8 	addq	$-24, %rdi
10000176f:	48 89 7d e8 	movq	%rdi, -24(%rbp)
100001773:	48 89 45 c8 	movq	%rax, -56(%rbp)
100001777:	e8 a4 fe ff ff 	callq	-348 <__ZNSt3__1L16__to_raw_pointerINS_12basic_stringIcNS_11char_traitsIcEENS_9allocatorIcEEEEEEPT_S8_>
10000177c:	48 8b 7d c8 	movq	-56(%rbp), %rdi
100001780:	48 89 c6 	movq	%rax, %rsi
100001783:	e8 38 00 00 00 	callq	56 <__ZNSt3__116allocator_traitsINS_9allocatorINS_12basic_stringIcNS_11char_traitsIcEENS1_IcEEEEEEE7destroyIS6_EEvRS7_PT_>
100001788:	e9 00 00 00 00 	jmp	0 <__ZNSt3__113__vector_baseINS_12basic_stringIcNS_11char_traitsIcEENS_9allocatorIcEEEENS4_IS6_EEE17__destruct_at_endEPS6_+0x5d>
10000178d:	e9 be ff ff ff 	jmp	-66 <__ZNSt3__113__vector_baseINS_12basic_stringIcNS_11char_traitsIcEENS_9allocatorIcEEEENS4_IS6_EEE17__destruct_at_endEPS6_+0x20>
100001792:	89 d1 	movl	%edx, %ecx
100001794:	48 89 45 e0 	movq	%rax, -32(%rbp)
100001798:	89 4d dc 	movl	%ecx, -36(%rbp)
10000179b:	48 8b 7d e0 	movq	-32(%rbp), %rdi
10000179f:	e8 f4 22 00 00 	callq	8948 <dyld_stub_binder+0x100003a98>
1000017a4:	48 8b 45 f0 	movq	-16(%rbp), %rax
1000017a8:	48 8b 4d d0 	movq	-48(%rbp), %rcx
1000017ac:	48 89 41 08 	movq	%rax, 8(%rcx)
1000017b0:	48 83 c4 40 	addq	$64, %rsp
1000017b4:	5d 	popq	%rbp
1000017b5:	c3 	retq
1000017b6:	66 2e 0f 1f 84 00 00 00 00 00 	nopw	%cs:(%rax,%rax)
1000017c0:	55 	pushq	%rbp
1000017c1:	48 89 e5 	movq	%rsp, %rbp
1000017c4:	48 83 ec 20 	subq	$32, %rsp
1000017c8:	48 89 7d f8 	movq	%rdi, -8(%rbp)
1000017cc:	48 89 75 f0 	movq	%rsi, -16(%rbp)
1000017d0:	48 8b 7d f8 	movq	-8(%rbp), %rdi
1000017d4:	48 8b 75 f0 	movq	-16(%rbp), %rsi
1000017d8:	e8 13 00 00 00 	callq	19 <__ZNSt3__116allocator_traitsINS_9allocatorINS_12basic_stringIcNS_11char_traitsIcEENS1_IcEEEEEEE9__destroyIS6_EEvNS_17integral_constantIbLb1EEERS7_PT_>
1000017dd:	48 83 c4 20 	addq	$32, %rsp
1000017e1:	5d 	popq	%rbp
1000017e2:	c3 	retq
1000017e3:	66 2e 0f 1f 84 00 00 00 00 00 	nopw	%cs:(%rax,%rax)
1000017ed:	0f 1f 00 	nopl	(%rax)
1000017f0:	55 	pushq	%rbp
1000017f1:	48 89 e5 	movq	%rsp, %rbp
1000017f4:	48 83 ec 20 	subq	$32, %rsp
1000017f8:	48 89 7d f0 	movq	%rdi, -16(%rbp)
1000017fc:	48 89 75 e8 	movq	%rsi, -24(%rbp)
100001800:	48 8b 7d f0 	movq	-16(%rbp), %rdi
100001804:	48 8b 75 e8 	movq	-24(%rbp), %rsi
100001808:	e8 13 00 00 00 	callq	19 <__ZNSt3__19allocatorINS_12basic_stringIcNS_11char_traitsIcEENS0_IcEEEEE7destroyEPS5_>
10000180d:	48 83 c4 20 	addq	$32, %rsp
100001811:	5d 	popq	%rbp
100001812:	c3 	retq
100001813:	66 2e 0f 1f 84 00 00 00 00 00 	nopw	%cs:(%rax,%rax)
10000181d:	0f 1f 00 	nopl	(%rax)
100001820:	55 	pushq	%rbp
100001821:	48 89 e5 	movq	%rsp, %rbp
100001824:	48 83 ec 10 	subq	$16, %rsp
100001828:	48 89 7d f8 	movq	%rdi, -8(%rbp)
10000182c:	48 89 75 f0 	movq	%rsi, -16(%rbp)
100001830:	48 8b 7d f0 	movq	-16(%rbp), %rdi
100001834:	e8 cf 21 00 00 	callq	8655 <dyld_stub_binder+0x100003a08>
100001839:	48 83 c4 10 	addq	$16, %rsp
10000183d:	5d 	popq	%rbp
10000183e:	c3 	retq
10000183f:	90 	nop
100001840:	55 	pushq	%rbp
100001841:	48 89 e5 	movq	%rsp, %rbp
100001844:	48 83 ec 30 	subq	$48, %rsp
100001848:	48 89 7d f8 	movq	%rdi, -8(%rbp)
10000184c:	48 89 75 f0 	movq	%rsi, -16(%rbp)
100001850:	48 89 55 e8 	movq	%rdx, -24(%rbp)
100001854:	48 8b 7d f0 	movq	-16(%rbp), %rdi
100001858:	48 8b 55 e8 	movq	-24(%rbp), %rdx
10000185c:	48 c1 e2 03 	shlq	$3, %rdx
100001860:	48 8d 34 52 	leaq	(%rdx,%rdx,2), %rsi
100001864:	ba 08 00 00 00 	movl	$8, %edx
100001869:	e8 22 00 00 00 	callq	34 <__ZNSt3__1L19__libcpp_deallocateEPvmm>
10000186e:	e9 00 00 00 00 	jmp	0 <__ZNSt3__19allocatorINS_12basic_stringIcNS_11char_traitsIcEENS0_IcEEEEE10deallocateEPS5_m+0x33>
100001873:	48 83 c4 30 	addq	$48, %rsp
100001877:	5d 	popq	%rbp
100001878:	c3 	retq
100001879:	89 d1 	movl	%edx, %ecx
10000187b:	48 89 45 e0 	movq	%rax, -32(%rbp)
10000187f:	89 4d dc 	movl	%ecx, -36(%rbp)
100001882:	48 8b 7d e0 	movq	-32(%rbp), %rdi
100001886:	e8 0d 22 00 00 	callq	8717 <dyld_stub_binder+0x100003a98>
10000188b:	0f 1f 44 00 00 	nopl	(%rax,%rax)
100001890:	55 	pushq	%rbp
100001891:	48 89 e5 	movq	%rsp, %rbp
100001894:	48 83 ec 20 	subq	$32, %rsp
100001898:	48 89 7d f8 	movq	%rdi, -8(%rbp)
10000189c:	48 89 75 f0 	movq	%rsi, -16(%rbp)
1000018a0:	48 89 55 e8 	movq	%rdx, -24(%rbp)
1000018a4:	48 8b 7d f8 	movq	-8(%rbp), %rdi
1000018a8:	48 8b 75 f0 	movq	-16(%rbp), %rsi
1000018ac:	48 8b 55 e8 	movq	-24(%rbp), %rdx
1000018b0:	e8 0b 00 00 00 	callq	11 <__ZNSt3__117_DeallocateCaller33__do_deallocate_handle_size_alignEPvmm>
1000018b5:	48 83 c4 20 	addq	$32, %rsp
1000018b9:	5d 	popq	%rbp
1000018ba:	c3 	retq
1000018bb:	0f 1f 44 00 00 	nopl	(%rax,%rax)
1000018c0:	55 	pushq	%rbp
1000018c1:	48 89 e5 	movq	%rsp, %rbp
1000018c4:	48 83 ec 20 	subq	$32, %rsp
1000018c8:	48 89 7d f8 	movq	%rdi, -8(%rbp)
1000018cc:	48 89 75 f0 	movq	%rsi, -16(%rbp)
1000018d0:	48 89 55 e8 	movq	%rdx, -24(%rbp)
1000018d4:	48 8b 7d f8 	movq	-8(%rbp), %rdi
1000018d8:	48 8b 75 f0 	movq	-16(%rbp), %rsi
1000018dc:	e8 4b 21 00 00 	callq	8523 <dyld_stub_binder+0x100003a2c>
1000018e1:	48 83 c4 20 	addq	$32, %rsp
1000018e5:	5d 	popq	%rbp
1000018e6:	c3 	retq
1000018e7:	66 0f 1f 84 00 00 00 00 00 	nopw	(%rax,%rax)
1000018f0:	55 	pushq	%rbp
1000018f1:	48 89 e5 	movq	%rsp, %rbp
1000018f4:	48 83 ec 10 	subq	$16, %rsp
1000018f8:	48 89 7d f8 	movq	%rdi, -8(%rbp)
1000018fc:	48 89 75 f0 	movq	%rsi, -16(%rbp)
100001900:	48 8b 7d f8 	movq	-8(%rbp), %rdi
100001904:	e8 29 21 00 00 	callq	8489 <dyld_stub_binder+0x100003a32>
100001909:	48 83 c4 10 	addq	$16, %rsp
10000190d:	5d 	popq	%rbp
10000190e:	c3 	retq
10000190f:	90 	nop
100001910:	55 	pushq	%rbp
100001911:	48 89 e5 	movq	%rsp, %rbp
100001914:	48 83 ec 10 	subq	$16, %rsp
100001918:	48 89 7d f8 	movq	%rdi, -8(%rbp)
10000191c:	48 8b 7d f8 	movq	-8(%rbp), %rdi
100001920:	e8 5b 21 00 00 	callq	8539 <dyld_stub_binder+0x100003a80>
100001925:	48 83 c4 10 	addq	$16, %rsp
100001929:	5d 	popq	%rbp
10000192a:	c3 	retq
10000192b:	0f 1f 44 00 00 	nopl	(%rax,%rax)
100001930:	55 	pushq	%rbp
100001931:	48 89 e5 	movq	%rsp, %rbp
100001934:	48 83 ec 10 	subq	$16, %rsp
100001938:	48 89 7d f8 	movq	%rdi, -8(%rbp)
10000193c:	48 8b 7d f8 	movq	-8(%rbp), %rdi
100001940:	e8 0b 00 00 00 	callq	11 <__ZNSt3__122__compressed_pair_elemINS_9allocatorINS_12basic_stringIcNS_11char_traitsIcEENS1_IcEEEEEELi1ELb1EE5__getEv>
100001945:	48 83 c4 10 	addq	$16, %rsp
100001949:	5d 	popq	%rbp
10000194a:	c3 	retq
10000194b:	0f 1f 44 00 00 	nopl	(%rax,%rax)
100001950:	55 	pushq	%rbp
100001951:	48 89 e5 	movq	%rsp, %rbp
100001954:	48 89 7d f8 	movq	%rdi, -8(%rbp)
100001958:	48 8b 7d f8 	movq	-8(%rbp), %rdi
10000195c:	48 89 f8 	movq	%rdi, %rax
10000195f:	5d 	popq	%rbp
100001960:	c3 	retq
100001961:	66 2e 0f 1f 84 00 00 00 00 00 	nopw	%cs:(%rax,%rax)
10000196b:	0f 1f 44 00 00 	nopl	(%rax,%rax)
100001970:	55 	pushq	%rbp
100001971:	48 89 e5 	movq	%rsp, %rbp
100001974:	48 83 ec 10 	subq	$16, %rsp
100001978:	48 89 7d f8 	movq	%rdi, -8(%rbp)
10000197c:	48 8b 7d f8 	movq	-8(%rbp), %rdi
100001980:	48 83 c7 10 	addq	$16, %rdi
100001984:	e8 77 01 00 00 	callq	375 <__ZNSt3__117__compressed_pairIPNS_12basic_stringIcNS_11char_traitsIcEENS_9allocatorIcEEEENS4_IS6_EEE5firstEv>
100001989:	48 83 c4 10 	addq	$16, %rsp
10000198d:	5d 	popq	%rbp
10000198e:	c3 	retq
10000198f:	90 	nop
100001990:	55 	pushq	%rbp
100001991:	48 89 e5 	movq	%rsp, %rbp
100001994:	48 83 ec 20 	subq	$32, %rsp
100001998:	48 89 7d f8 	movq	%rdi, -8(%rbp)
10000199c:	48 89 75 f0 	movq	%rsi, -16(%rbp)
1000019a0:	48 89 55 e8 	movq	%rdx, -24(%rbp)
1000019a4:	48 8b 7d f8 	movq	-8(%rbp), %rdi
1000019a8:	48 8b 75 f0 	movq	-16(%rbp), %rsi
1000019ac:	48 8b 55 e8 	movq	-24(%rbp), %rdx
1000019b0:	e8 7b 01 00 00 	callq	379 <__ZNSt3__16vectorINS_12basic_stringIcNS_11char_traitsIcEENS_9allocatorIcEEEENS4_IS6_EEE24__RAII_IncreaseAnnotatorC2ERKS8_m>
1000019b5:	48 83 c4 20 	addq	$32, %rsp
1000019b9:	5d 	popq	%rbp
1000019ba:	c3 	retq
1000019bb:	0f 1f 44 00 00 	nopl	(%rax,%rax)
1000019c0:	55 	pushq	%rbp
1000019c1:	48 89 e5 	movq	%rsp, %rbp
1000019c4:	48 83 ec 30 	subq	$48, %rsp
1000019c8:	48 89 7d f8 	movq	%rdi, -8(%rbp)
1000019cc:	48 89 75 f0 	movq	%rsi, -16(%rbp)
1000019d0:	48 89 55 e8 	movq	%rdx, -24(%rbp)
1000019d4:	48 8b 7d f8 	movq	-8(%rbp), %rdi
1000019d8:	48 8b 75 f0 	movq	-16(%rbp), %rsi
1000019dc:	48 8b 55 e8 	movq	-24(%rbp), %rdx
1000019e0:	e8 6b 01 00 00 	callq	363 <__ZNSt3__116allocator_traitsINS_9allocatorINS_12basic_stringIcNS_11char_traitsIcEENS1_IcEEEEEEE11__constructIS6_S6_EEvNS_17integral_constantIbLb1EEERS7_PT_RKT0_>
1000019e5:	48 83 c4 30 	addq	$48, %rsp
1000019e9:	5d 	popq	%rbp
1000019ea:	c3 	retq
1000019eb:	0f 1f 44 00 00 	nopl	(%rax,%rax)
1000019f0:	55 	pushq	%rbp
1000019f1:	48 89 e5 	movq	%rsp, %rbp
1000019f4:	48 89 7d f8 	movq	%rdi, -8(%rbp)
1000019f8:	5d 	popq	%rbp
1000019f9:	c3 	retq
1000019fa:	66 0f 1f 44 00 00 	nopw	(%rax,%rax)
100001a00:	55 	pushq	%rbp
100001a01:	48 89 e5 	movq	%rsp, %rbp
100001a04:	48 81 ec 80 00 00 00 	subq	$128, %rsp
100001a0b:	48 89 7d f8 	movq	%rdi, -8(%rbp)
100001a0f:	48 89 75 f0 	movq	%rsi, -16(%rbp)
100001a13:	48 8b 75 f8 	movq	-8(%rbp), %rsi
100001a17:	48 89 f7 	movq	%rsi, %rdi
100001a1a:	48 89 75 a8 	movq	%rsi, -88(%rbp)
100001a1e:	e8 ed fc ff ff 	callq	-787 <__ZNSt3__113__vector_baseINS_12basic_stringIcNS_11char_traitsIcEENS_9allocatorIcEEEENS4_IS6_EEE7__allocEv>
100001a23:	48 89 45 e8 	movq	%rax, -24(%rbp)
100001a27:	48 8b 7d a8 	movq	-88(%rbp), %rdi
100001a2b:	e8 f0 f3 ff ff 	callq	-3088 <__ZNKSt3__16vectorINS_12basic_stringIcNS_11char_traitsIcEENS_9allocatorIcEEEENS4_IS6_EEE4sizeEv>
100001a30:	48 ff c0 	incq	%rax
100001a33:	48 8b 7d a8 	movq	-88(%rbp), %rdi
100001a37:	48 89 c6 	movq	%rax, %rsi
100001a3a:	e8 71 01 00 00 	callq	369 <__ZNKSt3__16vectorINS_12basic_stringIcNS_11char_traitsIcEENS_9allocatorIcEEEENS4_IS6_EEE11__recommendEm>
100001a3f:	48 8b 7d a8 	movq	-88(%rbp), %rdi
100001a43:	48 89 45 a0 	movq	%rax, -96(%rbp)
100001a47:	e8 d4 f3 ff ff 	callq	-3116 <__ZNKSt3__16vectorINS_12basic_stringIcNS_11char_traitsIcEENS_9allocatorIcEEEENS4_IS6_EEE4sizeEv>
100001a4c:	48 8b 4d e8 	movq	-24(%rbp), %rcx
100001a50:	48 8d 7d c0 	leaq	-64(%rbp), %rdi
100001a54:	48 8b 75 a0 	movq	-96(%rbp), %rsi
100001a58:	48 89 c2 	movq	%rax, %rdx
100001a5b:	e8 f0 01 00 00 	callq	496 <__ZNSt3__114__split_bufferINS_12basic_stringIcNS_11char_traitsIcEENS_9allocatorIcEEEERNS4_IS6_EEEC1EmmS8_>
100001a60:	48 8b 7d e8 	movq	-24(%rbp), %rdi
100001a64:	48 8b 45 d0 	movq	-48(%rbp), %rax
100001a68:	48 89 7d 98 	movq	%rdi, -104(%rbp)
100001a6c:	48 89 c7 	movq	%rax, %rdi
100001a6f:	e8 ac fb ff ff 	callq	-1108 <__ZNSt3__1L16__to_raw_pointerINS_12basic_stringIcNS_11char_traitsIcEENS_9allocatorIcEEEEEEPT_S8_>
100001a74:	48 8b 7d f0 	movq	-16(%rbp), %rdi
100001a78:	48 89 45 90 	movq	%rax, -112(%rbp)
100001a7c:	e8 0f 02 00 00 	callq	527 <__ZNSt3__1L7forwardIKNS_12basic_stringIcNS_11char_traitsIcEENS_9allocatorIcEEEEEERT_RNS_16remove_referenceIS8_E4typeE>
100001a81:	48 8b 7d 98 	movq	-104(%rbp), %rdi
100001a85:	48 8b 75 90 	movq	-112(%rbp), %rsi
100001a89:	48 89 c2 	movq	%rax, %rdx
100001a8c:	e8 2f ff ff ff 	callq	-209 <__ZNSt3__116allocator_traitsINS_9allocatorINS_12basic_stringIcNS_11char_traitsIcEENS1_IcEEEEEEE9constructIS6_S6_EEvRS7_PT_RKT0_>
100001a91:	e9 00 00 00 00 	jmp	0 <__ZNSt3__16vectorINS_12basic_stringIcNS_11char_traitsIcEENS_9allocatorIcEEEENS4_IS6_EEE21__push_back_slow_pathIKS6_EEvRT_+0x96>
100001a96:	48 8b 45 d0 	movq	-48(%rbp), %rax
100001a9a:	48 83 c0 18 	addq	$24, %rax
100001a9e:	48 89 45 d0 	movq	%rax, -48(%rbp)
100001aa2:	48 8d 75 c0 	leaq	-64(%rbp), %rsi
100001aa6:	48 8b 7d a8 	movq	-88(%rbp), %rdi
100001aaa:	e8 a7 1f 00 00 	callq	8103 <dyld_stub_binder+0x100003a56>
100001aaf:	e9 00 00 00 00 	jmp	0 <__ZNSt3__16vectorINS_12basic_stringIcNS_11char_traitsIcEENS_9allocatorIcEEEENS4_IS6_EEE21__push_back_slow_pathIKS6_EEvRT_+0xb4>
100001ab4:	48 8d 7d c0 	leaq	-64(%rbp), %rdi
100001ab8:	e8 c3 02 00 00 	callq	707 <__ZNSt3__114__split_bufferINS_12basic_stringIcNS_11char_traitsIcEENS_9allocatorIcEEEERNS4_IS6_EEED1Ev>
100001abd:	48 81 c4 80 00 00 00 	addq	$128, %rsp
100001ac4:	5d 	popq	%rbp
100001ac5:	c3 	retq
100001ac6:	89 d1 	movl	%edx, %ecx
100001ac8:	48 89 45 b8 	movq	%rax, -72(%rbp)
100001acc:	89 4d b4 	movl	%ecx, -76(%rbp)
100001acf:	48 8d 7d c0 	leaq	-64(%rbp), %rdi
100001ad3:	e8 a8 02 00 00 	callq	680 <__ZNSt3__114__split_bufferINS_12basic_stringIcNS_11char_traitsIcEENS_9allocatorIcEEEERNS4_IS6_EEED1Ev>
100001ad8:	e9 00 00 00 00 	jmp	0 <__ZNSt3__16vectorINS_12basic_stringIcNS_11char_traitsIcEENS_9allocatorIcEEEENS4_IS6_EEE21__push_back_slow_pathIKS6_EEvRT_+0xdd>
100001add:	e9 00 00 00 00 	jmp	0 <__ZNSt3__16vectorINS_12basic_stringIcNS_11char_traitsIcEENS_9allocatorIcEEEENS4_IS6_EEE21__push_back_slow_pathIKS6_EEvRT_+0xe2>
100001ae2:	48 8b 7d b8 	movq	-72(%rbp), %rdi
100001ae6:	e8 c9 1e 00 00 	callq	7881 <dyld_stub_binder+0x1000039b4>
100001aeb:	0f 0b 	ud2
100001aed:	48 89 c7 	movq	%rax, %rdi
100001af0:	48 89 55 88 	movq	%rdx, -120(%rbp)
100001af4:	e8 f7 f2 ff ff 	callq	-3337 <___clang_call_terminate>
100001af9:	0f 1f 80 00 00 00 00 	nopl	(%rax)
100001b00:	55 	pushq	%rbp
100001b01:	48 89 e5 	movq	%rsp, %rbp
100001b04:	48 83 ec 10 	subq	$16, %rsp
100001b08:	48 89 7d f8 	movq	%rdi, -8(%rbp)
100001b0c:	48 8b 7d f8 	movq	-8(%rbp), %rdi
100001b10:	e8 0b 00 00 00 	callq	11 <__ZNSt3__122__compressed_pair_elemIPNS_12basic_stringIcNS_11char_traitsIcEENS_9allocatorIcEEEELi0ELb0EE5__getEv>
100001b15:	48 83 c4 10 	addq	$16, %rsp
100001b19:	5d 	popq	%rbp
100001b1a:	c3 	retq
100001b1b:	0f 1f 44 00 00 	nopl	(%rax,%rax)
100001b20:	55 	pushq	%rbp
100001b21:	48 89 e5 	movq	%rsp, %rbp
100001b24:	48 89 7d f8 	movq	%rdi, -8(%rbp)
100001b28:	48 8b 45 f8 	movq	-8(%rbp), %rax
100001b2c:	5d 	popq	%rbp
100001b2d:	c3 	retq
100001b2e:	66 90 	nop
100001b30:	55 	pushq	%rbp
100001b31:	48 89 e5 	movq	%rsp, %rbp
100001b34:	48 89 7d f8 	movq	%rdi, -8(%rbp)
100001b38:	48 89 75 f0 	movq	%rsi, -16(%rbp)
100001b3c:	48 89 55 e8 	movq	%rdx, -24(%rbp)
100001b40:	5d 	popq	%rbp
100001b41:	c3 	retq
100001b42:	66 2e 0f 1f 84 00 00 00 00 00 	nopw	%cs:(%rax,%rax)
100001b4c:	0f 1f 40 00 	nopl	(%rax)
100001b50:	55 	pushq	%rbp
100001b51:	48 89 e5 	movq	%rsp, %rbp
100001b54:	48 83 ec 20 	subq	$32, %rsp
100001b58:	48 89 7d f0 	movq	%rdi, -16(%rbp)
100001b5c:	48 89 75 e8 	movq	%rsi, -24(%rbp)
100001b60:	48 89 55 e0 	movq	%rdx, -32(%rbp)
100001b64:	48 8b 7d f0 	movq	-16(%rbp), %rdi
100001b68:	48 8b 75 e8 	movq	-24(%rbp), %rsi
100001b6c:	48 8b 55 e0 	movq	-32(%rbp), %rdx
100001b70:	e8 0b 00 00 00 	callq	11 <__ZNSt3__19allocatorINS_12basic_stringIcNS_11char_traitsIcEENS0_IcEEEEE9constructIS5_EEvPS5_RKT_>
100001b75:	48 83 c4 20 	addq	$32, %rsp
100001b79:	5d 	popq	%rbp
100001b7a:	c3 	retq
100001b7b:	0f 1f 44 00 00 	nopl	(%rax,%rax)
100001b80:	55 	pushq	%rbp
100001b81:	48 89 e5 	movq	%rsp, %rbp
100001b84:	48 83 ec 20 	subq	$32, %rsp
100001b88:	48 89 7d f8 	movq	%rdi, -8(%rbp)
100001b8c:	48 89 75 f0 	movq	%rsi, -16(%rbp)
100001b90:	48 89 55 e8 	movq	%rdx, -24(%rbp)
100001b94:	48 8b 55 f0 	movq	-16(%rbp), %rdx
100001b98:	48 8b 75 e8 	movq	-24(%rbp), %rsi
100001b9c:	48 89 d7 	movq	%rdx, %rdi
100001b9f:	e8 5e 1e 00 00 	callq	7774 <dyld_stub_binder+0x100003a02>
100001ba4:	48 83 c4 20 	addq	$32, %rsp
100001ba8:	5d 	popq	%rbp
100001ba9:	c3 	retq
100001baa:	66 0f 1f 44 00 00 	nopw	(%rax,%rax)
100001bb0:	55 	pushq	%rbp
100001bb1:	48 89 e5 	movq	%rsp, %rbp
100001bb4:	48 83 ec 40 	subq	$64, %rsp
100001bb8:	48 89 7d f0 	movq	%rdi, -16(%rbp)
100001bbc:	48 89 75 e8 	movq	%rsi, -24(%rbp)
100001bc0:	48 8b 75 f0 	movq	-16(%rbp), %rsi
100001bc4:	48 89 f7 	movq	%rsi, %rdi
100001bc7:	48 89 75 c8 	movq	%rsi, -56(%rbp)
100001bcb:	e8 f6 1d 00 00 	callq	7670 <dyld_stub_binder+0x1000039c6>
100001bd0:	48 89 45 e0 	movq	%rax, -32(%rbp)
100001bd4:	48 8b 45 e8 	movq	-24(%rbp), %rax
100001bd8:	48 3b 45 e0 	cmpq	-32(%rbp), %rax
100001bdc:	0f 86 09 00 00 00 	jbe	9 <__ZNKSt3__16vectorINS_12basic_stringIcNS_11char_traitsIcEENS_9allocatorIcEEEENS4_IS6_EEE11__recommendEm+0x3b>
100001be2:	48 8b 7d c8 	movq	-56(%rbp), %rdi
100001be6:	e8 cf 1d 00 00 	callq	7631 <dyld_stub_binder+0x1000039ba>
100001beb:	48 8b 7d c8 	movq	-56(%rbp), %rdi
100001bef:	e8 0c fa ff ff 	callq	-1524 <__ZNKSt3__16vectorINS_12basic_stringIcNS_11char_traitsIcEENS_9allocatorIcEEEENS4_IS6_EEE8capacityEv>
100001bf4:	48 89 45 d8 	movq	%rax, -40(%rbp)
100001bf8:	48 8b 45 d8 	movq	-40(%rbp), %rax
100001bfc:	48 8b 7d e0 	movq	-32(%rbp), %rdi
100001c00:	48 c1 ef 01 	shrq	$1, %rdi
100001c04:	48 39 f8 	cmpq	%rdi, %rax
100001c07:	0f 82 0d 00 00 00 	jb	13 <__ZNKSt3__16vectorINS_12basic_stringIcNS_11char_traitsIcEENS_9allocatorIcEEEENS4_IS6_EEE11__recommendEm+0x6a>
100001c0d:	48 8b 45 e0 	movq	-32(%rbp), %rax
100001c11:	48 89 45 f8 	movq	%rax, -8(%rbp)
100001c15:	e9 20 00 00 00 	jmp	32 <__ZNKSt3__16vectorINS_12basic_stringIcNS_11char_traitsIcEENS_9allocatorIcEEEENS4_IS6_EEE11__recommendEm+0x8a>
100001c1a:	48 8b 45 d8 	movq	-40(%rbp), %rax
100001c1e:	48 c1 e0 01 	shlq	$1, %rax
100001c22:	48 89 45 d0 	movq	%rax, -48(%rbp)
100001c26:	48 8d 7d d0 	leaq	-48(%rbp), %rdi
100001c2a:	48 8d 75 e8 	leaq	-24(%rbp), %rsi
100001c2e:	e8 cd 01 00 00 	callq	461 <__ZNSt3__1L3maxImEERKT_S3_S3_>
100001c33:	48 8b 00 	movq	(%rax), %rax
100001c36:	48 89 45 f8 	movq	%rax, -8(%rbp)
100001c3a:	48 8b 45 f8 	movq	-8(%rbp), %rax
100001c3e:	48 83 c4 40 	addq	$64, %rsp
100001c42:	5d 	popq	%rbp
100001c43:	c3 	retq
100001c44:	66 2e 0f 1f 84 00 00 00 00 00 	nopw	%cs:(%rax,%rax)
100001c4e:	66 90 	nop
100001c50:	55 	pushq	%rbp
100001c51:	48 89 e5 	movq	%rsp, %rbp
100001c54:	48 83 ec 20 	subq	$32, %rsp
100001c58:	48 89 7d f8 	movq	%rdi, -8(%rbp)
100001c5c:	48 89 75 f0 	movq	%rsi, -16(%rbp)
100001c60:	48 89 55 e8 	movq	%rdx, -24(%rbp)
100001c64:	48 89 4d e0 	movq	%rcx, -32(%rbp)
100001c68:	48 8b 7d f8 	movq	-8(%rbp), %rdi
100001c6c:	48 8b 75 f0 	movq	-16(%rbp), %rsi
100001c70:	48 8b 55 e8 	movq	-24(%rbp), %rdx
100001c74:	48 8b 4d e0 	movq	-32(%rbp), %rcx
100001c78:	e8 93 03 00 00 	callq	915 <__ZNSt3__114__split_bufferINS_12basic_stringIcNS_11char_traitsIcEENS_9allocatorIcEEEERNS4_IS6_EEEC2EmmS8_>
100001c7d:	48 83 c4 20 	addq	$32, %rsp
100001c81:	5d 	popq	%rbp
100001c82:	c3 	retq
100001c83:	66 2e 0f 1f 84 00 00 00 00 00 	nopw	%cs:(%rax,%rax)
100001c8d:	0f 1f 00 	nopl	(%rax)
100001c90:	55 	pushq	%rbp
100001c91:	48 89 e5 	movq	%rsp, %rbp
100001c94:	48 89 7d f8 	movq	%rdi, -8(%rbp)
100001c98:	48 8b 45 f8 	movq	-8(%rbp), %rax
100001c9c:	5d 	popq	%rbp
100001c9d:	c3 	retq
100001c9e:	66 90 	nop
100001ca0:	55 	pushq	%rbp
100001ca1:	48 89 e5 	movq	%rsp, %rbp
100001ca4:	48 83 ec 20 	subq	$32, %rsp
100001ca8:	48 89 7d f8 	movq	%rdi, -8(%rbp)
100001cac:	48 89 75 f0 	movq	%rsi, -16(%rbp)
100001cb0:	48 8b 75 f8 	movq	-8(%rbp), %rsi
100001cb4:	48 89 f7 	movq	%rsi, %rdi
100001cb7:	48 89 75 e8 	movq	%rsi, -24(%rbp)
100001cbb:	e8 c0 f7 ff ff 	callq	-2112 <__ZNKSt3__16vectorINS_12basic_stringIcNS_11char_traitsIcEENS_9allocatorIcEEEENS4_IS6_EEE17__annotate_deleteEv>
100001cc0:	48 8b 75 e8 	movq	-24(%rbp), %rsi
100001cc4:	48 89 f7 	movq	%rsi, %rdi
100001cc7:	e8 44 fa ff ff 	callq	-1468 <__ZNSt3__113__vector_baseINS_12basic_stringIcNS_11char_traitsIcEENS_9allocatorIcEEEENS4_IS6_EEE7__allocEv>
100001ccc:	48 8b 75 e8 	movq	-24(%rbp), %rsi
100001cd0:	48 8b 36 	movq	(%rsi), %rsi
100001cd3:	48 8b 7d e8 	movq	-24(%rbp), %rdi
100001cd7:	48 8b 57 08 	movq	8(%rdi), %rdx
100001cdb:	48 8b 4d f0 	movq	-16(%rbp), %rcx
100001cdf:	48 83 c1 08 	addq	$8, %rcx
100001ce3:	48 89 c7 	movq	%rax, %rdi
100001ce6:	e8 f5 06 00 00 	callq	1781 <__ZNSt3__116allocator_traitsINS_9allocatorINS_12basic_stringIcNS_11char_traitsIcEENS1_IcEEEEEEE20__construct_backwardIPS6_EEvRS7_T_SC_RSC_>
100001ceb:	48 8b 45 e8 	movq	-24(%rbp), %rax
100001cef:	48 8b 4d f0 	movq	-16(%rbp), %rcx
100001cf3:	48 83 c1 08 	addq	$8, %rcx
100001cf7:	48 89 c7 	movq	%rax, %rdi
100001cfa:	48 89 ce 	movq	%rcx, %rsi
100001cfd:	e8 5e 07 00 00 	callq	1886 <__ZNSt3__1L4swapIPNS_12basic_stringIcNS_11char_traitsIcEENS_9allocatorIcEEEEEEvRT_S9_>
100001d02:	48 8b 45 e8 	movq	-24(%rbp), %rax
100001d06:	48 83 c0 08 	addq	$8, %rax
100001d0a:	48 8b 4d f0 	movq	-16(%rbp), %rcx
100001d0e:	48 83 c1 10 	addq	$16, %rcx
100001d12:	48 89 c7 	movq	%rax, %rdi
100001d15:	48 89 ce 	movq	%rcx, %rsi
100001d18:	e8 43 07 00 00 	callq	1859 <__ZNSt3__1L4swapIPNS_12basic_stringIcNS_11char_traitsIcEENS_9allocatorIcEEEEEEvRT_S9_>
100001d1d:	48 8b 45 e8 	movq	-24(%rbp), %rax
100001d21:	48 89 c7 	movq	%rax, %rdi
100001d24:	e8 47 fc ff ff 	callq	-953 <__ZNSt3__113__vector_baseINS_12basic_stringIcNS_11char_traitsIcEENS_9allocatorIcEEEENS4_IS6_EEE9__end_capEv>
100001d29:	48 8b 7d f0 	movq	-16(%rbp), %rdi
100001d2d:	48 89 45 e0 	movq	%rax, -32(%rbp)
100001d31:	e8 2a 04 00 00 	callq	1066 <__ZNSt3__114__split_bufferINS_12basic_stringIcNS_11char_traitsIcEENS_9allocatorIcEEEERNS4_IS6_EEE9__end_capEv>
100001d36:	48 8b 7d e0 	movq	-32(%rbp), %rdi
100001d3a:	48 89 c6 	movq	%rax, %rsi
100001d3d:	e8 1e 07 00 00 	callq	1822 <__ZNSt3__1L4swapIPNS_12basic_stringIcNS_11char_traitsIcEENS_9allocatorIcEEEEEEvRT_S9_>
100001d42:	48 8b 45 f0 	movq	-16(%rbp), %rax
100001d46:	48 8b 40 08 	movq	8(%rax), %rax
100001d4a:	48 8b 4d f0 	movq	-16(%rbp), %rcx
100001d4e:	48 89 01 	movq	%rax, (%rcx)
100001d51:	48 8b 7d e8 	movq	-24(%rbp), %rdi
100001d55:	e8 c6 f0 ff ff 	callq	-3898 <__ZNKSt3__16vectorINS_12basic_stringIcNS_11char_traitsIcEENS_9allocatorIcEEEENS4_IS6_EEE4sizeEv>
100001d5a:	48 8b 7d e8 	movq	-24(%rbp), %rdi
100001d5e:	48 89 c6 	movq	%rax, %rsi
100001d61:	e8 4a 07 00 00 	callq	1866 <__ZNKSt3__16vectorINS_12basic_stringIcNS_11char_traitsIcEENS_9allocatorIcEEEENS4_IS6_EEE14__annotate_newEm>
100001d66:	48 8b 7d e8 	movq	-24(%rbp), %rdi
100001d6a:	e8 e1 07 00 00 	callq	2017 <__ZNSt3__16vectorINS_12basic_stringIcNS_11char_traitsIcEENS_9allocatorIcEEEENS4_IS6_EEE26__invalidate_all_iteratorsEv>
100001d6f:	48 83 c4 20 	addq	$32, %rsp
100001d73:	5d 	popq	%rbp
100001d74:	c3 	retq
100001d75:	66 2e 0f 1f 84 00 00 00 00 00 	nopw	%cs:(%rax,%rax)
100001d7f:	90 	nop
100001d80:	55 	pushq	%rbp
100001d81:	48 89 e5 	movq	%rsp, %rbp
100001d84:	48 83 ec 10 	subq	$16, %rsp
100001d88:	48 89 7d f8 	movq	%rdi, -8(%rbp)
100001d8c:	48 8b 7d f8 	movq	-8(%rbp), %rdi
100001d90:	e8 2b 08 00 00 	callq	2091 <__ZNSt3__114__split_bufferINS_12basic_stringIcNS_11char_traitsIcEENS_9allocatorIcEEEERNS4_IS6_EEED2Ev>
100001d95:	48 83 c4 10 	addq	$16, %rsp
100001d99:	5d 	popq	%rbp
100001d9a:	c3 	retq
100001d9b:	0f 1f 44 00 00 	nopl	(%rax,%rax)
100001da0:	55 	pushq	%rbp
100001da1:	48 89 e5 	movq	%rsp, %rbp
100001da4:	48 83 ec 30 	subq	$48, %rsp
100001da8:	48 89 7d f8 	movq	%rdi, -8(%rbp)
100001dac:	48 8b 7d f8 	movq	-8(%rbp), %rdi
100001db0:	e8 cb 00 00 00 	callq	203 <__ZNKSt3__113__vector_baseINS_12basic_stringIcNS_11char_traitsIcEENS_9allocatorIcEEEENS4_IS6_EEE7__allocEv>
100001db5:	48 89 c7 	movq	%rax, %rdi
100001db8:	e8 a3 00 00 00 	callq	163 <__ZNSt3__116allocator_traitsINS_9allocatorINS_12basic_stringIcNS_11char_traitsIcEENS1_IcEEEEEEE8max_sizeERKS7_>
100001dbd:	48 89 45 f0 	movq	%rax, -16(%rbp)
100001dc1:	e8 da 00 00 00 	callq	218 <__ZNSt3__114numeric_limitsIlE3maxEv>
100001dc6:	48 89 45 e8 	movq	%rax, -24(%rbp)
100001dca:	48 8d 7d f0 	leaq	-16(%rbp), %rdi
100001dce:	48 8d 75 e8 	leaq	-24(%rbp), %rsi
100001dd2:	e8 59 00 00 00 	callq	89 <__ZNSt3__1L3minImEERKT_S3_S3_>
100001dd7:	48 89 45 d0 	movq	%rax, -48(%rbp)
100001ddb:	e9 00 00 00 00 	jmp	0 <__ZNKSt3__16vectorINS_12basic_stringIcNS_11char_traitsIcEENS_9allocatorIcEEEENS4_IS6_EEE8max_sizeEv+0x40>
100001de0:	48 8b 45 d0 	movq	-48(%rbp), %rax
100001de4:	48 8b 00 	movq	(%rax), %rax
100001de7:	48 83 c4 30 	addq	$48, %rsp
100001deb:	5d 	popq	%rbp
100001dec:	c3 	retq
100001ded:	89 d1 	movl	%edx, %ecx
100001def:	48 89 45 e0 	movq	%rax, -32(%rbp)
100001df3:	89 4d dc 	movl	%ecx, -36(%rbp)
100001df6:	48 8b 7d e0 	movq	-32(%rbp), %rdi
100001dfa:	e8 99 1c 00 00 	callq	7321 <dyld_stub_binder+0x100003a98>
100001dff:	90 	nop
100001e00:	55 	pushq	%rbp
100001e01:	48 89 e5 	movq	%rsp, %rbp
100001e04:	48 83 ec 20 	subq	$32, %rsp
100001e08:	48 89 7d f8 	movq	%rdi, -8(%rbp)
100001e0c:	48 89 75 f0 	movq	%rsi, -16(%rbp)
100001e10:	48 8b 7d f8 	movq	-8(%rbp), %rdi
100001e14:	48 8b 75 f0 	movq	-16(%rbp), %rsi
100001e18:	e8 a3 01 00 00 	callq	419 <__ZNSt3__1L3maxImNS_6__lessImmEEEERKT_S5_S5_T0_>
100001e1d:	48 83 c4 20 	addq	$32, %rsp
100001e21:	5d 	popq	%rbp
100001e22:	c3 	retq
100001e23:	66 2e 0f 1f 84 00 00 00 00 00 	nopw	%cs:(%rax,%rax)
100001e2d:	0f 1f 00 	nopl	(%rax)
100001e30:	55 	pushq	%rbp
100001e31:	48 89 e5 	movq	%rsp, %rbp
100001e34:	48 83 ec 20 	subq	$32, %rsp
100001e38:	48 89 7d f8 	movq	%rdi, -8(%rbp)
100001e3c:	48 89 75 f0 	movq	%rsi, -16(%rbp)
100001e40:	48 8b 7d f8 	movq	-8(%rbp), %rdi
100001e44:	48 8b 75 f0 	movq	-16(%rbp), %rsi
100001e48:	e8 63 00 00 00 	callq	99 <__ZNSt3__1L3minImNS_6__lessImmEEEERKT_S5_S5_T0_>
100001e4d:	48 83 c4 20 	addq	$32, %rsp
100001e51:	5d 	popq	%rbp
100001e52:	c3 	retq
100001e53:	66 2e 0f 1f 84 00 00 00 00 00 	nopw	%cs:(%rax,%rax)
100001e5d:	0f 1f 00 	nopl	(%rax)
100001e60:	55 	pushq	%rbp
100001e61:	48 89 e5 	movq	%rsp, %rbp
100001e64:	48 83 ec 20 	subq	$32, %rsp
100001e68:	48 89 7d f8 	movq	%rdi, -8(%rbp)
100001e6c:	48 8b 7d f8 	movq	-8(%rbp), %rdi
100001e70:	e8 bb 00 00 00 	callq	187 <__ZNSt3__116allocator_traitsINS_9allocatorINS_12basic_stringIcNS_11char_traitsIcEENS1_IcEEEEEEE10__max_sizeENS_17integral_constantIbLb1EEERKS7_>
100001e75:	48 83 c4 20 	addq	$32, %rsp
100001e79:	5d 	popq	%rbp
100001e7a:	c3 	retq
100001e7b:	0f 1f 44 00 00 	nopl	(%rax,%rax)
100001e80:	55 	pushq	%rbp
100001e81:	48 89 e5 	movq	%rsp, %rbp
100001e84:	48 83 ec 10 	subq	$16, %rsp
100001e88:	48 89 7d f8 	movq	%rdi, -8(%rbp)
100001e8c:	48 8b 7d f8 	movq	-8(%rbp), %rdi
100001e90:	48 83 c7 10 	addq	$16, %rdi
100001e94:	e8 d7 00 00 00 	callq	215 <__ZNKSt3__117__compressed_pairIPNS_12basic_stringIcNS_11char_traitsIcEENS_9allocatorIcEEEENS4_IS6_EEE6secondEv>
100001e99:	48 83 c4 10 	addq	$16, %rsp
100001e9d:	5d 	popq	%rbp
100001e9e:	c3 	retq
100001e9f:	90 	nop
100001ea0:	55 	pushq	%rbp
100001ea1:	48 89 e5 	movq	%rsp, %rbp
100001ea4:	e8 07 01 00 00 	callq	263 <__ZNSt3__123__libcpp_numeric_limitsIlLb1EE3maxEv>
100001ea9:	5d 	popq	%rbp
100001eaa:	c3 	retq
100001eab:	0f 1f 44 00 00 	nopl	(%rax,%rax)
100001eb0:	55 	pushq	%rbp
100001eb1:	48 89 e5 	movq	%rsp, %rbp
100001eb4:	48 83 ec 20 	subq	$32, %rsp
100001eb8:	48 89 7d f0 	movq	%rdi, -16(%rbp)
100001ebc:	48 89 75 e8 	movq	%rsi, -24(%rbp)
100001ec0:	48 8b 75 e8 	movq	-24(%rbp), %rsi
100001ec4:	48 8b 55 f0 	movq	-16(%rbp), %rdx
100001ec8:	48 8d 7d f8 	leaq	-8(%rbp), %rdi
100001ecc:	e8 2f 00 00 00 	callq	47 <__ZNKSt3__16__lessImmEclERKmS3_>
100001ed1:	a8 01 	testb	$1, %al
100001ed3:	0f 85 05 00 00 00 	jne	5 <__ZNSt3__1L3minImNS_6__lessImmEEEERKT_S5_S5_T0_+0x2e>
100001ed9:	e9 0d 00 00 00 	jmp	13 <__ZNSt3__1L3minImNS_6__lessImmEEEERKT_S5_S5_T0_+0x3b>
100001ede:	48 8b 45 e8 	movq	-24(%rbp), %rax
100001ee2:	48 89 45 e0 	movq	%rax, -32(%rbp)
100001ee6:	e9 08 00 00 00 	jmp	8 <__ZNSt3__1L3minImNS_6__lessImmEEEERKT_S5_S5_T0_+0x43>
100001eeb:	48 8b 45 f0 	movq	-16(%rbp), %rax
100001eef:	48 89 45 e0 	movq	%rax, -32(%rbp)
100001ef3:	48 8b 45 e0 	movq	-32(%rbp), %rax
100001ef7:	48 83 c4 20 	addq	$32, %rsp
100001efb:	5d 	popq	%rbp
100001efc:	c3 	retq
100001efd:	0f 1f 00 	nopl	(%rax)
100001f00:	55 	pushq	%rbp
100001f01:	48 89 e5 	movq	%rsp, %rbp
100001f04:	48 89 7d f8 	movq	%rdi, -8(%rbp)
100001f08:	48 89 75 f0 	movq	%rsi, -16(%rbp)
100001f0c:	48 89 55 e8 	movq	%rdx, -24(%rbp)
100001f10:	48 8b 55 f0 	movq	-16(%rbp), %rdx
100001f14:	48 8b 12 	movq	(%rdx), %rdx
100001f17:	48 8b 75 e8 	movq	-24(%rbp), %rsi
100001f1b:	48 3b 16 	cmpq	(%rsi), %rdx
100001f1e:	0f 92 c0 	setb	%al
100001f21:	24 01 	andb	$1, %al
100001f23:	0f b6 c0 	movzbl	%al, %eax
100001f26:	5d 	popq	%rbp
100001f27:	c3 	retq
100001f28:	0f 1f 84 00 00 00 00 00 	nopl	(%rax,%rax)
100001f30:	55 	pushq	%rbp
100001f31:	48 89 e5 	movq	%rsp, %rbp
100001f34:	48 83 ec 10 	subq	$16, %rsp
100001f38:	48 89 7d f0 	movq	%rdi, -16(%rbp)
100001f3c:	48 8b 7d f0 	movq	-16(%rbp), %rdi
100001f40:	e8 0b 00 00 00 	callq	11 <__ZNKSt3__19allocatorINS_12basic_stringIcNS_11char_traitsIcEENS0_IcEEEEE8max_sizeEv>
100001f45:	48 83 c4 10 	addq	$16, %rsp
100001f49:	5d 	popq	%rbp
100001f4a:	c3 	retq
100001f4b:	0f 1f 44 00 00 	nopl	(%rax,%rax)
100001f50:	55 	pushq	%rbp
100001f51:	48 89 e5 	movq	%rsp, %rbp
100001f54:	48 89 7d f8 	movq	%rdi, -8(%rbp)
100001f58:	48 b8 aa aa aa aa aa aa aa 0a 	movabsq	$768614336404564650, %rax
100001f62:	5d 	popq	%rbp
100001f63:	c3 	retq
100001f64:	66 2e 0f 1f 84 00 00 00 00 00 	nopw	%cs:(%rax,%rax)
100001f6e:	66 90 	nop
100001f70:	55 	pushq	%rbp
100001f71:	48 89 e5 	movq	%rsp, %rbp
100001f74:	48 83 ec 10 	subq	$16, %rsp
100001f78:	48 89 7d f8 	movq	%rdi, -8(%rbp)
100001f7c:	48 8b 7d f8 	movq	-8(%rbp), %rdi
100001f80:	e8 0b 00 00 00 	callq	11 <__ZNKSt3__122__compressed_pair_elemINS_9allocatorINS_12basic_stringIcNS_11char_traitsIcEENS1_IcEEEEEELi1ELb1EE5__getEv>
100001f85:	48 83 c4 10 	addq	$16, %rsp
100001f89:	5d 	popq	%rbp
100001f8a:	c3 	retq
100001f8b:	0f 1f 44 00 00 	nopl	(%rax,%rax)
100001f90:	55 	pushq	%rbp
100001f91:	48 89 e5 	movq	%rsp, %rbp
100001f94:	48 89 7d f8 	movq	%rdi, -8(%rbp)
100001f98:	48 8b 7d f8 	movq	-8(%rbp), %rdi
100001f9c:	48 89 f8 	movq	%rdi, %rax
100001f9f:	5d 	popq	%rbp
100001fa0:	c3 	retq
100001fa1:	66 2e 0f 1f 84 00 00 00 00 00 	nopw	%cs:(%rax,%rax)
100001fab:	0f 1f 44 00 00 	nopl	(%rax,%rax)
100001fb0:	55 	pushq	%rbp
100001fb1:	48 89 e5 	movq	%rsp, %rbp
100001fb4:	48 b8 ff ff ff ff ff ff ff 7f 	movabsq	$9223372036854775807, %rax
100001fbe:	5d 	popq	%rbp
100001fbf:	c3 	retq
100001fc0:	55 	pushq	%rbp
100001fc1:	48 89 e5 	movq	%rsp, %rbp
100001fc4:	48 83 ec 20 	subq	$32, %rsp
100001fc8:	48 89 7d f0 	movq	%rdi, -16(%rbp)
100001fcc:	48 89 75 e8 	movq	%rsi, -24(%rbp)
100001fd0:	48 8b 75 f0 	movq	-16(%rbp), %rsi
100001fd4:	48 8b 55 e8 	movq	-24(%rbp), %rdx
100001fd8:	48 8d 7d f8 	leaq	-8(%rbp), %rdi
100001fdc:	e8 1f ff ff ff 	callq	-225 <__ZNKSt3__16__lessImmEclERKmS3_>
100001fe1:	a8 01 	testb	$1, %al
100001fe3:	0f 85 05 00 00 00 	jne	5 <__ZNSt3__1L3maxImNS_6__lessImmEEEERKT_S5_S5_T0_+0x2e>
100001fe9:	e9 0d 00 00 00 	jmp	13 <__ZNSt3__1L3maxImNS_6__lessImmEEEERKT_S5_S5_T0_+0x3b>
100001fee:	48 8b 45 e8 	movq	-24(%rbp), %rax
100001ff2:	48 89 45 e0 	movq	%rax, -32(%rbp)
100001ff6:	e9 08 00 00 00 	jmp	8 <__ZNSt3__1L3maxImNS_6__lessImmEEEERKT_S5_S5_T0_+0x43>
100001ffb:	48 8b 45 f0 	movq	-16(%rbp), %rax
100001fff:	48 89 45 e0 	movq	%rax, -32(%rbp)
100002003:	48 8b 45 e0 	movq	-32(%rbp), %rax
100002007:	48 83 c4 20 	addq	$32, %rsp
10000200b:	5d 	popq	%rbp
10000200c:	c3 	retq
10000200d:	0f 1f 00 	nopl	(%rax)
100002010:	55 	pushq	%rbp
100002011:	48 89 e5 	movq	%rsp, %rbp
100002014:	48 83 ec 50 	subq	$80, %rsp
100002018:	48 89 7d f8 	movq	%rdi, -8(%rbp)
10000201c:	48 89 75 f0 	movq	%rsi, -16(%rbp)
100002020:	48 89 55 e8 	movq	%rdx, -24(%rbp)
100002024:	48 89 4d e0 	movq	%rcx, -32(%rbp)
100002028:	48 8b 4d f8 	movq	-8(%rbp), %rcx
10000202c:	48 89 ca 	movq	%rcx, %rdx
10000202f:	48 83 c2 18 	addq	$24, %rdx
100002033:	48 89 4d c8 	movq	%rcx, -56(%rbp)
100002037:	48 89 55 c0 	movq	%rdx, -64(%rbp)
10000203b:	e8 40 f2 ff ff 	callq	-3520 <__ZNSt3__1L15__get_nullptr_tEv>
100002040:	48 89 45 d8 	movq	%rax, -40(%rbp)
100002044:	48 8d 7d d8 	leaq	-40(%rbp), %rdi
100002048:	e8 63 f2 ff ff 	callq	-3485 <__ZNKSt3__19nullptr_tcvPT_INS_12basic_stringIcNS_11char_traitsIcEENS_9allocatorIcEEEEEEv>
10000204d:	48 8b 55 e0 	movq	-32(%rbp), %rdx
100002051:	48 8b 7d c0 	movq	-64(%rbp), %rdi
100002055:	48 89 c6 	movq	%rax, %rsi
100002058:	e8 83 00 00 00 	callq	131 <__ZNSt3__117__compressed_pairIPNS_12basic_stringIcNS_11char_traitsIcEENS_9allocatorIcEEEERNS4_IS6_EEEC1ES7_S9_>
10000205d:	48 83 7d f0 00 	cmpq	$0, -16(%rbp)
100002062:	0f 84 1e 00 00 00 	je	30 <__ZNSt3__114__split_bufferINS_12basic_stringIcNS_11char_traitsIcEENS_9allocatorIcEEEERNS4_IS6_EEEC2EmmS8_+0x76>
100002068:	48 8b 7d c8 	movq	-56(%rbp), %rdi
10000206c:	e8 cf 00 00 00 	callq	207 <__ZNSt3__114__split_bufferINS_12basic_stringIcNS_11char_traitsIcEENS_9allocatorIcEEEERNS4_IS6_EEE7__allocEv>
100002071:	48 8b 75 f0 	movq	-16(%rbp), %rsi
100002075:	48 89 c7 	movq	%rax, %rdi
100002078:	e8 93 00 00 00 	callq	147 <__ZNSt3__116allocator_traitsINS_9allocatorINS_12basic_stringIcNS_11char_traitsIcEENS1_IcEEEEEEE8allocateERS7_m>
10000207d:	48 89 45 b8 	movq	%rax, -72(%rbp)
100002081:	e9 16 00 00 00 	jmp	22 <__ZNSt3__114__split_bufferINS_12basic_stringIcNS_11char_traitsIcEENS_9allocatorIcEEEERNS4_IS6_EEEC2EmmS8_+0x8c>
100002086:	e8 f5 f1 ff ff 	callq	-3595 <__ZNSt3__1L15__get_nullptr_tEv>
10000208b:	48 89 45 d0 	movq	%rax, -48(%rbp)
10000208f:	48 8d 7d d0 	leaq	-48(%rbp), %rdi
100002093:	e8 18 f2 ff ff 	callq	-3560 <__ZNKSt3__19nullptr_tcvPT_INS_12basic_stringIcNS_11char_traitsIcEENS_9allocatorIcEEEEEEv>
100002098:	48 89 45 b8 	movq	%rax, -72(%rbp)
10000209c:	48 8b 45 b8 	movq	-72(%rbp), %rax
1000020a0:	48 8b 4d c8 	movq	-56(%rbp), %rcx
1000020a4:	48 89 01 	movq	%rax, (%rcx)
1000020a7:	48 8b 01 	movq	(%rcx), %rax
1000020aa:	48 6b 55 e8 18 	imulq	$24, -24(%rbp), %rdx
1000020af:	48 01 d0 	addq	%rdx, %rax
1000020b2:	48 89 41 10 	movq	%rax, 16(%rcx)
1000020b6:	48 89 41 08 	movq	%rax, 8(%rcx)
1000020ba:	48 8b 01 	movq	(%rcx), %rax
1000020bd:	48 6b 55 f0 18 	imulq	$24, -16(%rbp), %rdx
1000020c2:	48 01 d0 	addq	%rdx, %rax
1000020c5:	48 89 cf 	movq	%rcx, %rdi
1000020c8:	48 89 45 b0 	movq	%rax, -80(%rbp)
1000020cc:	e8 8f 00 00 00 	callq	143 <__ZNSt3__114__split_bufferINS_12basic_stringIcNS_11char_traitsIcEENS_9allocatorIcEEEERNS4_IS6_EEE9__end_capEv>
1000020d1:	48 8b 4d b0 	movq	-80(%rbp), %rcx
1000020d5:	48 89 08 	movq	%rcx, (%rax)
1000020d8:	48 83 c4 50 	addq	$80, %rsp
1000020dc:	5d 	popq	%rbp
1000020dd:	c3 	retq
1000020de:	66 90 	nop
1000020e0:	55 	pushq	%rbp
1000020e1:	48 89 e5 	movq	%rsp, %rbp
1000020e4:	48 83 ec 20 	subq	$32, %rsp
1000020e8:	48 89 7d f8 	movq	%rdi, -8(%rbp)
1000020ec:	48 89 75 f0 	movq	%rsi, -16(%rbp)
1000020f0:	48 89 55 e8 	movq	%rdx, -24(%rbp)
1000020f4:	48 8b 7d f8 	movq	-8(%rbp), %rdi
1000020f8:	48 8b 75 f0 	movq	-16(%rbp), %rsi
1000020fc:	48 8b 55 e8 	movq	-24(%rbp), %rdx
100002100:	e8 7b 00 00 00 	callq	123 <__ZNSt3__117__compressed_pairIPNS_12basic_stringIcNS_11char_traitsIcEENS_9allocatorIcEEEERNS4_IS6_EEEC2ES7_S9_>
100002105:	48 83 c4 20 	addq	$32, %rsp
100002109:	5d 	popq	%rbp
10000210a:	c3 	retq
10000210b:	0f 1f 44 00 00 	nopl	(%rax,%rax)
100002110:	55 	pushq	%rbp
100002111:	48 89 e5 	movq	%rsp, %rbp
100002114:	48 83 ec 10 	subq	$16, %rsp
100002118:	31 c0 	xorl	%eax, %eax
10000211a:	89 c2 	movl	%eax, %edx
10000211c:	48 89 7d f8 	movq	%rdi, -8(%rbp)
100002120:	48 89 75 f0 	movq	%rsi, -16(%rbp)
100002124:	48 8b 7d f8 	movq	-8(%rbp), %rdi
100002128:	48 8b 75 f0 	movq	-16(%rbp), %rsi
10000212c:	e8 ef 00 00 00 	callq	239 <__ZNSt3__19allocatorINS_12basic_stringIcNS_11char_traitsIcEENS0_IcEEEEE8allocateEmPKv>
100002131:	48 83 c4 10 	addq	$16, %rsp
100002135:	5d 	popq	%rbp
100002136:	c3 	retq
100002137:	66 0f 1f 84 00 00 00 00 00 	nopw	(%rax,%rax)
100002140:	55 	pushq	%rbp
100002141:	48 89 e5 	movq	%rsp, %rbp
100002144:	48 83 ec 10 	subq	$16, %rsp
100002148:	48 89 7d f8 	movq	%rdi, -8(%rbp)
10000214c:	48 8b 7d f8 	movq	-8(%rbp), %rdi
100002150:	48 83 c7 18 	addq	$24, %rdi
100002154:	e8 27 02 00 00 	callq	551 <__ZNSt3__117__compressed_pairIPNS_12basic_stringIcNS_11char_traitsIcEENS_9allocatorIcEEEERNS4_IS6_EEE6secondEv>
100002159:	48 83 c4 10 	addq	$16, %rsp
10000215d:	5d 	popq	%rbp
10000215e:	c3 	retq
10000215f:	90 	nop
100002160:	55 	pushq	%rbp
100002161:	48 89 e5 	movq	%rsp, %rbp
100002164:	48 83 ec 10 	subq	$16, %rsp
100002168:	48 89 7d f8 	movq	%rdi, -8(%rbp)
10000216c:	48 8b 7d f8 	movq	-8(%rbp), %rdi
100002170:	48 83 c7 18 	addq	$24, %rdi
100002174:	e8 47 02 00 00 	callq	583 <__ZNSt3__117__compressed_pairIPNS_12basic_stringIcNS_11char_traitsIcEENS_9allocatorIcEEEERNS4_IS6_EEE5firstEv>
100002179:	48 83 c4 10 	addq	$16, %rsp
10000217d:	5d 	popq	%rbp
10000217e:	c3 	retq
10000217f:	90 	nop
100002180:	55 	pushq	%rbp
100002181:	48 89 e5 	movq	%rsp, %rbp
100002184:	48 83 ec 30 	subq	$48, %rsp
100002188:	48 89 7d f8 	movq	%rdi, -8(%rbp)
10000218c:	48 89 75 f0 	movq	%rsi, -16(%rbp)
100002190:	48 89 55 e8 	movq	%rdx, -24(%rbp)
100002194:	48 8b 55 f8 	movq	-8(%rbp), %rdx
100002198:	48 89 d6 	movq	%rdx, %rsi
10000219b:	48 8d 7d f0 	leaq	-16(%rbp), %rdi
10000219f:	48 89 55 e0 	movq	%rdx, -32(%rbp)
1000021a3:	48 89 75 d8 	movq	%rsi, -40(%rbp)
1000021a7:	e8 e4 f1 ff ff 	callq	-3612 <__ZNSt3__1L7forwardIPNS_12basic_stringIcNS_11char_traitsIcEENS_9allocatorIcEEEEEERT_RNS_16remove_referenceIS8_E4typeE>
1000021ac:	48 8b 30 	movq	(%rax), %rsi
1000021af:	48 8b 7d d8 	movq	-40(%rbp), %rdi
1000021b3:	e8 e8 f1 ff ff 	callq	-3608 <__ZNSt3__122__compressed_pair_elemIPNS_12basic_stringIcNS_11char_traitsIcEENS_9allocatorIcEEEELi0ELb0EEC2ES7_>
1000021b8:	48 8b 45 e0 	movq	-32(%rbp), %rax
1000021bc:	48 83 c0 08 	addq	$8, %rax
1000021c0:	48 8b 7d e8 	movq	-24(%rbp), %rdi
1000021c4:	48 89 45 d0 	movq	%rax, -48(%rbp)
1000021c8:	e8 13 00 00 00 	callq	19 <__ZNSt3__1L7forwardIRNS_9allocatorINS_12basic_stringIcNS_11char_traitsIcEENS1_IcEEEEEEEERT_RNS_16remove_referenceIS9_E4typeE>
1000021cd:	48 8b 7d d0 	movq	-48(%rbp), %rdi
1000021d1:	48 89 c6 	movq	%rax, %rsi
1000021d4:	e8 17 00 00 00 	callq	23 <__ZNSt3__122__compressed_pair_elemIRNS_9allocatorINS_12basic_stringIcNS_11char_traitsIcEENS1_IcEEEEEELi1ELb0EEC2ES8_>
1000021d9:	48 83 c4 30 	addq	$48, %rsp
1000021dd:	5d 	popq	%rbp
1000021de:	c3 	retq
1000021df:	90 	nop
1000021e0:	55 	pushq	%rbp
1000021e1:	48 89 e5 	movq	%rsp, %rbp
1000021e4:	48 89 7d f8 	movq	%rdi, -8(%rbp)
1000021e8:	48 8b 45 f8 	movq	-8(%rbp), %rax
1000021ec:	5d 	popq	%rbp
1000021ed:	c3 	retq
1000021ee:	66 90 	nop
1000021f0:	55 	pushq	%rbp
1000021f1:	48 89 e5 	movq	%rsp, %rbp
1000021f4:	48 83 ec 20 	subq	$32, %rsp
1000021f8:	48 89 7d f8 	movq	%rdi, -8(%rbp)
1000021fc:	48 89 75 f0 	movq	%rsi, -16(%rbp)
100002200:	48 8b 75 f8 	movq	-8(%rbp), %rsi
100002204:	48 8b 7d f0 	movq	-16(%rbp), %rdi
100002208:	48 89 75 e8 	movq	%rsi, -24(%rbp)
10000220c:	e8 cf ff ff ff 	callq	-49 <__ZNSt3__1L7forwardIRNS_9allocatorINS_12basic_stringIcNS_11char_traitsIcEENS1_IcEEEEEEEERT_RNS_16remove_referenceIS9_E4typeE>
100002211:	48 8b 75 e8 	movq	-24(%rbp), %rsi
100002215:	48 89 06 	movq	%rax, (%rsi)
100002218:	48 83 c4 20 	addq	$32, %rsp
10000221c:	5d 	popq	%rbp
10000221d:	c3 	retq
10000221e:	66 90 	nop
100002220:	55 	pushq	%rbp
100002221:	48 89 e5 	movq	%rsp, %rbp
100002224:	48 83 ec 20 	subq	$32, %rsp
100002228:	48 89 7d f8 	movq	%rdi, -8(%rbp)
10000222c:	48 89 75 f0 	movq	%rsi, -16(%rbp)
100002230:	48 89 55 e8 	movq	%rdx, -24(%rbp)
100002234:	48 8b 7d f8 	movq	-8(%rbp), %rdi
100002238:	48 8b 55 f0 	movq	-16(%rbp), %rdx
10000223c:	48 89 55 e0 	movq	%rdx, -32(%rbp)
100002240:	e8 0b fd ff ff 	callq	-757 <__ZNKSt3__19allocatorINS_12basic_stringIcNS_11char_traitsIcEENS0_IcEEEEE8max_sizeEv>
100002245:	48 8b 55 e0 	movq	-32(%rbp), %rdx
100002249:	48 39 c2 	cmpq	%rax, %rdx
10000224c:	0f 86 0c 00 00 00 	jbe	12 <__ZNSt3__19allocatorINS_12basic_stringIcNS_11char_traitsIcEENS0_IcEEEEE8allocateEmPKv+0x3e>
100002252:	48 8d 3d 05 1c 00 00 	leaq	7173(%rip), %rdi
100002259:	e8 22 00 00 00 	callq	34 <__ZNSt3__1L20__throw_length_errorEPKc>
10000225e:	48 6b 7d f0 18 	imulq	$24, -16(%rbp), %rdi
100002263:	be 08 00 00 00 	movl	$8, %esi
100002268:	e8 83 00 00 00 	callq	131 <__ZNSt3__1L17__libcpp_allocateEmm>
10000226d:	48 83 c4 20 	addq	$32, %rsp
100002271:	5d 	popq	%rbp
100002272:	c3 	retq
100002273:	66 2e 0f 1f 84 00 00 00 00 00 	nopw	%cs:(%rax,%rax)
10000227d:	0f 1f 00 	nopl	(%rax)
100002280:	55 	pushq	%rbp
100002281:	48 89 e5 	movq	%rsp, %rbp
100002284:	48 83 ec 20 	subq	$32, %rsp
100002288:	48 89 7d f8 	movq	%rdi, -8(%rbp)
10000228c:	bf 10 00 00 00 	movl	$16, %edi
100002291:	e8 f6 17 00 00 	callq	6134 <dyld_stub_binder+0x100003a8c>
100002296:	48 89 c7 	movq	%rax, %rdi
100002299:	48 8b 75 f8 	movq	-8(%rbp), %rsi
10000229d:	48 89 7d e0 	movq	%rdi, -32(%rbp)
1000022a1:	48 89 c7 	movq	%rax, %rdi
1000022a4:	e8 67 00 00 00 	callq	103 <__ZNSt12length_errorC1EPKc>
1000022a9:	e9 00 00 00 00 	jmp	0 <__ZNSt3__1L20__throw_length_errorEPKc+0x2e>
1000022ae:	48 8b 35 73 1d 00 00 	movq	7539(%rip), %rsi
1000022b5:	48 8b 15 4c 1d 00 00 	movq	7500(%rip), %rdx
1000022bc:	48 8b 7d e0 	movq	-32(%rbp), %rdi
1000022c0:	e8 e5 17 00 00 	callq	6117 <dyld_stub_binder+0x100003aaa>
1000022c5:	89 d1 	movl	%edx, %ecx
1000022c7:	48 89 45 f0 	movq	%rax, -16(%rbp)
1000022cb:	89 4d ec 	movl	%ecx, -20(%rbp)
1000022ce:	48 8b 7d e0 	movq	-32(%rbp), %rdi
1000022d2:	e8 cd 17 00 00 	callq	6093 <dyld_stub_binder+0x100003aa4>
1000022d7:	48 8b 7d f0 	movq	-16(%rbp), %rdi
1000022db:	e8 d4 16 00 00 	callq	5844 <dyld_stub_binder+0x1000039b4>
1000022e0:	0f 0b 	ud2
1000022e2:	66 2e 0f 1f 84 00 00 00 00 00 	nopw	%cs:(%rax,%rax)
1000022ec:	0f 1f 40 00 	nopl	(%rax)
1000022f0:	55 	pushq	%rbp
1000022f1:	48 89 e5 	movq	%rsp, %rbp
1000022f4:	48 83 ec 10 	subq	$16, %rsp
1000022f8:	48 89 7d f8 	movq	%rdi, -8(%rbp)
1000022fc:	48 89 75 f0 	movq	%rsi, -16(%rbp)
100002300:	48 8b 7d f8 	movq	-8(%rbp), %rdi
100002304:	e8 7d 17 00 00 	callq	6013 <dyld_stub_binder+0x100003a86>
100002309:	48 83 c4 10 	addq	$16, %rsp
10000230d:	5d 	popq	%rbp
10000230e:	c3 	retq
10000230f:	90 	nop
100002310:	55 	pushq	%rbp
100002311:	48 89 e5 	movq	%rsp, %rbp
100002314:	48 83 ec 10 	subq	$16, %rsp
100002318:	48 89 7d f8 	movq	%rdi, -8(%rbp)
10000231c:	48 89 75 f0 	movq	%rsi, -16(%rbp)
100002320:	48 8b 7d f8 	movq	-8(%rbp), %rdi
100002324:	48 8b 75 f0 	movq	-16(%rbp), %rsi
100002328:	e8 13 00 00 00 	callq	19 <__ZNSt12length_errorC2EPKc>
10000232d:	48 83 c4 10 	addq	$16, %rsp
100002331:	5d 	popq	%rbp
100002332:	c3 	retq
100002333:	66 2e 0f 1f 84 00 00 00 00 00 	nopw	%cs:(%rax,%rax)
10000233d:	0f 1f 00 	nopl	(%rax)
100002340:	55 	pushq	%rbp
100002341:	48 89 e5 	movq	%rsp, %rbp
100002344:	48 83 ec 20 	subq	$32, %rsp
100002348:	48 89 7d f8 	movq	%rdi, -8(%rbp)
10000234c:	48 89 75 f0 	movq	%rsi, -16(%rbp)
100002350:	48 8b 75 f8 	movq	-8(%rbp), %rsi
100002354:	48 89 f7 	movq	%rsi, %rdi
100002357:	48 8b 45 f0 	movq	-16(%rbp), %rax
10000235b:	48 89 75 e8 	movq	%rsi, -24(%rbp)
10000235f:	48 89 c6 	movq	%rax, %rsi
100002362:	e8 6b 16 00 00 	callq	5739 <dyld_stub_binder+0x1000039d2>
100002367:	48 8b 05 c2 1c 00 00 	movq	7362(%rip), %rax
10000236e:	48 83 c0 10 	addq	$16, %rax
100002372:	48 8b 75 e8 	movq	-24(%rbp), %rsi
100002376:	48 89 06 	movq	%rax, (%rsi)
100002379:	48 83 c4 20 	addq	$32, %rsp
10000237d:	5d 	popq	%rbp
10000237e:	c3 	retq
10000237f:	90 	nop
100002380:	55 	pushq	%rbp
100002381:	48 89 e5 	movq	%rsp, %rbp
100002384:	48 83 ec 10 	subq	$16, %rsp
100002388:	48 89 7d f8 	movq	%rdi, -8(%rbp)
10000238c:	48 8b 7d f8 	movq	-8(%rbp), %rdi
100002390:	48 83 c7 08 	addq	$8, %rdi
100002394:	e8 07 00 00 00 	callq	7 <__ZNSt3__122__compressed_pair_elemIRNS_9allocatorINS_12basic_stringIcNS_11char_traitsIcEENS1_IcEEEEEELi1ELb0EE5__getEv>
100002399:	48 83 c4 10 	addq	$16, %rsp
10000239d:	5d 	popq	%rbp
10000239e:	c3 	retq
10000239f:	90 	nop
1000023a0:	55 	pushq	%rbp
1000023a1:	48 89 e5 	movq	%rsp, %rbp
1000023a4:	48 89 7d f8 	movq	%rdi, -8(%rbp)
1000023a8:	48 8b 7d f8 	movq	-8(%rbp), %rdi
1000023ac:	48 8b 07 	movq	(%rdi), %rax
1000023af:	5d 	popq	%rbp
1000023b0:	c3 	retq
1000023b1:	66 2e 0f 1f 84 00 00 00 00 00 	nopw	%cs:(%rax,%rax)
1000023bb:	0f 1f 44 00 00 	nopl	(%rax,%rax)
1000023c0:	55 	pushq	%rbp
1000023c1:	48 89 e5 	movq	%rsp, %rbp
1000023c4:	48 83 ec 10 	subq	$16, %rsp
1000023c8:	48 89 7d f8 	movq	%rdi, -8(%rbp)
1000023cc:	48 8b 7d f8 	movq	-8(%rbp), %rdi
1000023d0:	e8 4b f7 ff ff 	callq	-2229 <__ZNSt3__122__compressed_pair_elemIPNS_12basic_stringIcNS_11char_traitsIcEENS_9allocatorIcEEEELi0ELb0EE5__getEv>
1000023d5:	48 83 c4 10 	addq	$16, %rsp
1000023d9:	5d 	popq	%rbp
1000023da:	c3 	retq
1000023db:	0f 1f 44 00 00 	nopl	(%rax,%rax)
1000023e0:	55 	pushq	%rbp
1000023e1:	48 89 e5 	movq	%rsp, %rbp
1000023e4:	48 83 ec 30 	subq	$48, %rsp
1000023e8:	48 89 7d f8 	movq	%rdi, -8(%rbp)
1000023ec:	48 89 75 f0 	movq	%rsi, -16(%rbp)
1000023f0:	48 89 55 e8 	movq	%rdx, -24(%rbp)
1000023f4:	48 89 4d e0 	movq	%rcx, -32(%rbp)
1000023f8:	48 8b 45 e8 	movq	-24(%rbp), %rax
1000023fc:	48 3b 45 f0 	cmpq	-16(%rbp), %rax
100002400:	0f 84 53 00 00 00 	je	83 <__ZNSt3__116allocator_traitsINS_9allocatorINS_12basic_stringIcNS_11char_traitsIcEENS1_IcEEEEEEE20__construct_backwardIPS6_EEvRS7_T_SC_RSC_+0x79>
100002406:	48 8b 7d f8 	movq	-8(%rbp), %rdi
10000240a:	48 8b 45 e0 	movq	-32(%rbp), %rax
10000240e:	48 8b 00 	movq	(%rax), %rax
100002411:	48 83 c0 e8 	addq	$-24, %rax
100002415:	48 89 7d d8 	movq	%rdi, -40(%rbp)
100002419:	48 89 c7 	movq	%rax, %rdi
10000241c:	e8 ff f1 ff ff 	callq	-3585 <__ZNSt3__1L16__to_raw_pointerINS_12basic_stringIcNS_11char_traitsIcEENS_9allocatorIcEEEEEEPT_S8_>
100002421:	48 8b 7d e8 	movq	-24(%rbp), %rdi
100002425:	48 83 c7 e8 	addq	$-24, %rdi
100002429:	48 89 7d e8 	movq	%rdi, -24(%rbp)
10000242d:	48 89 45 d0 	movq	%rax, -48(%rbp)
100002431:	e8 2a 01 00 00 	callq	298 <__ZNSt3__1L16move_if_noexceptINS_12basic_stringIcNS_11char_traitsIcEENS_9allocatorIcEEEEEERKT_RS7_>
100002436:	48 8b 7d d8 	movq	-40(%rbp), %rdi
10000243a:	48 8b 75 d0 	movq	-48(%rbp), %rsi
10000243e:	48 89 c2 	movq	%rax, %rdx
100002441:	e8 7a f5 ff ff 	callq	-2694 <__ZNSt3__116allocator_traitsINS_9allocatorINS_12basic_stringIcNS_11char_traitsIcEENS1_IcEEEEEEE9constructIS6_S6_EEvRS7_PT_RKT0_>
100002446:	48 8b 45 e0 	movq	-32(%rbp), %rax
10000244a:	48 8b 10 	movq	(%rax), %rdx
10000244d:	48 83 c2 e8 	addq	$-24, %rdx
100002451:	48 89 10 	movq	%rdx, (%rax)
100002454:	e9 9f ff ff ff 	jmp	-97 <__ZNSt3__116allocator_traitsINS_9allocatorINS_12basic_stringIcNS_11char_traitsIcEENS1_IcEEEEEEE20__construct_backwardIPS6_EEvRS7_T_SC_RSC_+0x18>
100002459:	48 83 c4 30 	addq	$48, %rsp
10000245d:	5d 	popq	%rbp
10000245e:	c3 	retq
10000245f:	90 	nop
100002460:	55 	pushq	%rbp
100002461:	48 89 e5 	movq	%rsp, %rbp
100002464:	48 83 ec 20 	subq	$32, %rsp
100002468:	48 89 7d f8 	movq	%rdi, -8(%rbp)
10000246c:	48 89 75 f0 	movq	%rsi, -16(%rbp)
100002470:	48 8b 7d f8 	movq	-8(%rbp), %rdi
100002474:	e8 37 01 00 00 	callq	311 <__ZNSt3__1L4moveIPNS_12basic_stringIcNS_11char_traitsIcEENS_9allocatorIcEEEEEERT_S9_>
100002479:	48 8b 00 	movq	(%rax), %rax
10000247c:	48 89 45 e8 	movq	%rax, -24(%rbp)
100002480:	48 8b 7d f0 	movq	-16(%rbp), %rdi
100002484:	e8 27 01 00 00 	callq	295 <__ZNSt3__1L4moveIPNS_12basic_stringIcNS_11char_traitsIcEENS_9allocatorIcEEEEEERT_S9_>
100002489:	48 8b 00 	movq	(%rax), %rax
10000248c:	48 8b 75 f8 	movq	-8(%rbp), %rsi
100002490:	48 89 06 	movq	%rax, (%rsi)
100002493:	48 8d 7d e8 	leaq	-24(%rbp), %rdi
100002497:	e8 14 01 00 00 	callq	276 <__ZNSt3__1L4moveIPNS_12basic_stringIcNS_11char_traitsIcEENS_9allocatorIcEEEEEERT_S9_>
10000249c:	48 8b 00 	movq	(%rax), %rax
10000249f:	48 8b 75 f0 	movq	-16(%rbp), %rsi
1000024a3:	48 89 06 	movq	%rax, (%rsi)
1000024a6:	48 83 c4 20 	addq	$32, %rsp
1000024aa:	5d 	popq	%rbp
1000024ab:	c3 	retq
1000024ac:	0f 1f 40 00 	nopl	(%rax)
1000024b0:	55 	pushq	%rbp
1000024b1:	48 89 e5 	movq	%rsp, %rbp
1000024b4:	48 83 ec 40 	subq	$64, %rsp
1000024b8:	48 89 7d f8 	movq	%rdi, -8(%rbp)
1000024bc:	48 89 75 f0 	movq	%rsi, -16(%rbp)
1000024c0:	48 8b 75 f8 	movq	-8(%rbp), %rsi
1000024c4:	48 89 f7 	movq	%rsi, %rdi
1000024c7:	48 89 75 e8 	movq	%rsi, -24(%rbp)
1000024cb:	e8 10 f1 ff ff 	callq	-3824 <__ZNKSt3__16vectorINS_12basic_stringIcNS_11char_traitsIcEENS_9allocatorIcEEEENS4_IS6_EEE4dataEv>
1000024d0:	48 8b 7d e8 	movq	-24(%rbp), %rdi
1000024d4:	48 89 45 e0 	movq	%rax, -32(%rbp)
1000024d8:	e8 03 f1 ff ff 	callq	-3837 <__ZNKSt3__16vectorINS_12basic_stringIcNS_11char_traitsIcEENS_9allocatorIcEEEENS4_IS6_EEE4dataEv>
1000024dd:	48 8b 7d e8 	movq	-24(%rbp), %rdi
1000024e1:	48 89 45 d8 	movq	%rax, -40(%rbp)
1000024e5:	e8 16 f1 ff ff 	callq	-3818 <__ZNKSt3__16vectorINS_12basic_stringIcNS_11char_traitsIcEENS_9allocatorIcEEEENS4_IS6_EEE8capacityEv>
1000024ea:	48 6b c0 18 	imulq	$24, %rax, %rax
1000024ee:	48 8b 75 d8 	movq	-40(%rbp), %rsi
1000024f2:	48 01 c6 	addq	%rax, %rsi
1000024f5:	48 8b 7d e8 	movq	-24(%rbp), %rdi
1000024f9:	48 89 75 d0 	movq	%rsi, -48(%rbp)
1000024fd:	e8 de f0 ff ff 	callq	-3874 <__ZNKSt3__16vectorINS_12basic_stringIcNS_11char_traitsIcEENS_9allocatorIcEEEENS4_IS6_EEE4dataEv>
100002502:	48 8b 7d e8 	movq	-24(%rbp), %rdi
100002506:	48 89 45 c8 	movq	%rax, -56(%rbp)
10000250a:	e8 f1 f0 ff ff 	callq	-3855 <__ZNKSt3__16vectorINS_12basic_stringIcNS_11char_traitsIcEENS_9allocatorIcEEEENS4_IS6_EEE8capacityEv>
10000250f:	48 6b c0 18 	imulq	$24, %rax, %rax
100002513:	48 8b 75 c8 	movq	-56(%rbp), %rsi
100002517:	48 01 c6 	addq	%rax, %rsi
10000251a:	48 8b 7d e8 	movq	-24(%rbp), %rdi
10000251e:	48 89 75 c0 	movq	%rsi, -64(%rbp)
100002522:	e8 b9 f0 ff ff 	callq	-3911 <__ZNKSt3__16vectorINS_12basic_stringIcNS_11char_traitsIcEENS_9allocatorIcEEEENS4_IS6_EEE4dataEv>
100002527:	48 6b 75 f0 18 	imulq	$24, -16(%rbp), %rsi
10000252c:	48 01 f0 	addq	%rsi, %rax
10000252f:	48 8b 7d e8 	movq	-24(%rbp), %rdi
100002533:	48 8b 75 e0 	movq	-32(%rbp), %rsi
100002537:	48 8b 55 d0 	movq	-48(%rbp), %rdx
10000253b:	48 8b 4d c0 	movq	-64(%rbp), %rcx
10000253f:	49 89 c0 	movq	%rax, %r8
100002542:	e8 79 f0 ff ff 	callq	-3975 <__ZNKSt3__16vectorINS_12basic_stringIcNS_11char_traitsIcEENS_9allocatorIcEEEENS4_IS6_EEE31__annotate_contiguous_containerEPKvSA_SA_SA_>
100002547:	48 83 c4 40 	addq	$64, %rsp
10000254b:	5d 	popq	%rbp
10000254c:	c3 	retq
10000254d:	0f 1f 00 	nopl	(%rax)
100002550:	55 	pushq	%rbp
100002551:	48 89 e5 	movq	%rsp, %rbp
100002554:	48 89 7d f8 	movq	%rdi, -8(%rbp)
100002558:	5d 	popq	%rbp
100002559:	c3 	retq
10000255a:	66 0f 1f 44 00 00 	nopw	(%rax,%rax)
100002560:	55 	pushq	%rbp
100002561:	48 89 e5 	movq	%rsp, %rbp
100002564:	48 83 ec 20 	subq	$32, %rsp
100002568:	48 89 7d f8 	movq	%rdi, -8(%rbp)
10000256c:	48 8b 7d f8 	movq	-8(%rbp), %rdi
100002570:	e8 2b 00 00 00 	callq	43 <__ZNSt3__1L4moveINS_12basic_stringIcNS_11char_traitsIcEENS_9allocatorIcEEEEEERT_S8_>
100002575:	48 89 45 e0 	movq	%rax, -32(%rbp)
100002579:	e9 00 00 00 00 	jmp	0 <__ZNSt3__1L16move_if_noexceptINS_12basic_stringIcNS_11char_traitsIcEENS_9allocatorIcEEEEEERKT_RS7_+0x1e>
10000257e:	48 8b 45 e0 	movq	-32(%rbp), %rax
100002582:	48 83 c4 20 	addq	$32, %rsp
100002586:	5d 	popq	%rbp
100002587:	c3 	retq
100002588:	89 d1 	movl	%edx, %ecx
10000258a:	48 89 45 f0 	movq	%rax, -16(%rbp)
10000258e:	89 4d ec 	movl	%ecx, -20(%rbp)
100002591:	48 8b 7d f0 	movq	-16(%rbp), %rdi
100002595:	e8 fe 14 00 00 	callq	5374 <dyld_stub_binder+0x100003a98>
10000259a:	66 0f 1f 44 00 00 	nopw	(%rax,%rax)
1000025a0:	55 	pushq	%rbp
1000025a1:	48 89 e5 	movq	%rsp, %rbp
1000025a4:	48 89 7d f8 	movq	%rdi, -8(%rbp)
1000025a8:	48 8b 45 f8 	movq	-8(%rbp), %rax
1000025ac:	5d 	popq	%rbp
1000025ad:	c3 	retq
1000025ae:	66 90 	nop
1000025b0:	55 	pushq	%rbp
1000025b1:	48 89 e5 	movq	%rsp, %rbp
1000025b4:	48 89 7d f8 	movq	%rdi, -8(%rbp)
1000025b8:	48 8b 45 f8 	movq	-8(%rbp), %rax
1000025bc:	5d 	popq	%rbp
1000025bd:	c3 	retq
1000025be:	66 90 	nop
1000025c0:	55 	pushq	%rbp
1000025c1:	48 89 e5 	movq	%rsp, %rbp
1000025c4:	48 83 ec 20 	subq	$32, %rsp
1000025c8:	48 89 7d f8 	movq	%rdi, -8(%rbp)
1000025cc:	48 8b 7d f8 	movq	-8(%rbp), %rdi
1000025d0:	48 89 7d f0 	movq	%rdi, -16(%rbp)
1000025d4:	e8 47 00 00 00 	callq	71 <__ZNSt3__114__split_bufferINS_12basic_stringIcNS_11char_traitsIcEENS_9allocatorIcEEEERNS4_IS6_EEE5clearEv>
1000025d9:	48 8b 7d f0 	movq	-16(%rbp), %rdi
1000025dd:	48 83 3f 00 	cmpq	$0, (%rdi)
1000025e1:	0f 84 2d 00 00 00 	je	45 <__ZNSt3__114__split_bufferINS_12basic_stringIcNS_11char_traitsIcEENS_9allocatorIcEEEERNS4_IS6_EEED2Ev+0x54>
1000025e7:	48 8b 7d f0 	movq	-16(%rbp), %rdi
1000025eb:	e8 50 fb ff ff 	callq	-1200 <__ZNSt3__114__split_bufferINS_12basic_stringIcNS_11char_traitsIcEENS_9allocatorIcEEEERNS4_IS6_EEE7__allocEv>
1000025f0:	48 8b 7d f0 	movq	-16(%rbp), %rdi
1000025f4:	48 8b 37 	movq	(%rdi), %rsi
1000025f7:	48 89 45 e8 	movq	%rax, -24(%rbp)
1000025fb:	48 89 75 e0 	movq	%rsi, -32(%rbp)
1000025ff:	e8 3c 00 00 00 	callq	60 <__ZNKSt3__114__split_bufferINS_12basic_stringIcNS_11char_traitsIcEENS_9allocatorIcEEEERNS4_IS6_EEE8capacityEv>
100002604:	48 8b 7d e8 	movq	-24(%rbp), %rdi
100002608:	48 8b 75 e0 	movq	-32(%rbp), %rsi
10000260c:	48 89 c2 	movq	%rax, %rdx
10000260f:	e8 cc f0 ff ff 	callq	-3892 <__ZNSt3__116allocator_traitsINS_9allocatorINS_12basic_stringIcNS_11char_traitsIcEENS1_IcEEEEEEE10deallocateERS7_PS6_m>
100002614:	48 83 c4 20 	addq	$32, %rsp
100002618:	5d 	popq	%rbp
100002619:	c3 	retq
10000261a:	66 0f 1f 44 00 00 	nopw	(%rax,%rax)
100002620:	55 	pushq	%rbp
100002621:	48 89 e5 	movq	%rsp, %rbp
100002624:	48 83 ec 10 	subq	$16, %rsp
100002628:	48 89 7d f8 	movq	%rdi, -8(%rbp)
10000262c:	48 8b 7d f8 	movq	-8(%rbp), %rdi
100002630:	48 8b 77 08 	movq	8(%rdi), %rsi
100002634:	e8 47 00 00 00 	callq	71 <__ZNSt3__114__split_bufferINS_12basic_stringIcNS_11char_traitsIcEENS_9allocatorIcEEEERNS4_IS6_EEE17__destruct_at_endEPS6_>
100002639:	48 83 c4 10 	addq	$16, %rsp
10000263d:	5d 	popq	%rbp
10000263e:	c3 	retq
10000263f:	90 	nop
100002640:	55 	pushq	%rbp
100002641:	48 89 e5 	movq	%rsp, %rbp
100002644:	48 83 ec 10 	subq	$16, %rsp
100002648:	48 89 7d f8 	movq	%rdi, -8(%rbp)
10000264c:	48 8b 7d f8 	movq	-8(%rbp), %rdi
100002650:	48 89 7d f0 	movq	%rdi, -16(%rbp)
100002654:	e8 d7 00 00 00 	callq	215 <__ZNKSt3__114__split_bufferINS_12basic_stringIcNS_11char_traitsIcEENS_9allocatorIcEEEERNS4_IS6_EEE9__end_capEv>
100002659:	48 8b 00 	movq	(%rax), %rax
10000265c:	48 8b 7d f0 	movq	-16(%rbp), %rdi
100002660:	48 8b 0f 	movq	(%rdi), %rcx
100002663:	48 29 c8 	subq	%rcx, %rax
100002666:	48 99 	cqto
100002668:	b9 18 00 00 00 	movl	$24, %ecx
10000266d:	48 f7 f9 	idivq	%rcx
100002670:	48 83 c4 10 	addq	$16, %rsp
100002674:	5d 	popq	%rbp
100002675:	c3 	retq
100002676:	66 2e 0f 1f 84 00 00 00 00 00 	nopw	%cs:(%rax,%rax)
100002680:	55 	pushq	%rbp
100002681:	48 89 e5 	movq	%rsp, %rbp
100002684:	48 83 ec 20 	subq	$32, %rsp
100002688:	48 89 7d f8 	movq	%rdi, -8(%rbp)
10000268c:	48 89 75 f0 	movq	%rsi, -16(%rbp)
100002690:	48 8b 7d f8 	movq	-8(%rbp), %rdi
100002694:	48 8b 75 f0 	movq	-16(%rbp), %rsi
100002698:	e8 13 00 00 00 	callq	19 <__ZNSt3__114__split_bufferINS_12basic_stringIcNS_11char_traitsIcEENS_9allocatorIcEEEERNS4_IS6_EEE17__destruct_at_endEPS6_NS_17integral_constantIbLb0EEE>
10000269d:	48 83 c4 20 	addq	$32, %rsp
1000026a1:	5d 	popq	%rbp
1000026a2:	c3 	retq
1000026a3:	66 2e 0f 1f 84 00 00 00 00 00 	nopw	%cs:(%rax,%rax)
1000026ad:	0f 1f 00 	nopl	(%rax)
1000026b0:	55 	pushq	%rbp
1000026b1:	48 89 e5 	movq	%rsp, %rbp
1000026b4:	48 83 ec 40 	subq	$64, %rsp
1000026b8:	48 89 7d f0 	movq	%rdi, -16(%rbp)
1000026bc:	48 89 75 e8 	movq	%rsi, -24(%rbp)
1000026c0:	48 8b 75 f0 	movq	-16(%rbp), %rsi
1000026c4:	48 89 75 d0 	movq	%rsi, -48(%rbp)
1000026c8:	48 8b 45 e8 	movq	-24(%rbp), %rax
1000026cc:	48 8b 4d d0 	movq	-48(%rbp), %rcx
1000026d0:	48 3b 41 10 	cmpq	16(%rcx), %rax
1000026d4:	0f 84 4d 00 00 00 	je	77 <__ZNSt3__114__split_bufferINS_12basic_stringIcNS_11char_traitsIcEENS_9allocatorIcEEEERNS4_IS6_EEE17__destruct_at_endEPS6_NS_17integral_constantIbLb0EEE+0x77>
1000026da:	48 8b 7d d0 	movq	-48(%rbp), %rdi
1000026de:	e8 5d fa ff ff 	callq	-1443 <__ZNSt3__114__split_bufferINS_12basic_stringIcNS_11char_traitsIcEENS_9allocatorIcEEEERNS4_IS6_EEE7__allocEv>
1000026e3:	48 8b 7d d0 	movq	-48(%rbp), %rdi
1000026e7:	48 8b 4f 10 	movq	16(%rdi), %rcx
1000026eb:	48 83 c1 e8 	addq	$-24, %rcx
1000026ef:	48 89 4f 10 	movq	%rcx, 16(%rdi)
1000026f3:	48 89 cf 	movq	%rcx, %rdi
1000026f6:	48 89 45 c8 	movq	%rax, -56(%rbp)
1000026fa:	e8 21 ef ff ff 	callq	-4319 <__ZNSt3__1L16__to_raw_pointerINS_12basic_stringIcNS_11char_traitsIcEENS_9allocatorIcEEEEEEPT_S8_>
1000026ff:	48 8b 7d c8 	movq	-56(%rbp), %rdi
100002703:	48 89 c6 	movq	%rax, %rsi
100002706:	e8 b5 f0 ff ff 	callq	-3915 <__ZNSt3__116allocator_traitsINS_9allocatorINS_12basic_stringIcNS_11char_traitsIcEENS1_IcEEEEEEE7destroyIS6_EEvRS7_PT_>
10000270b:	e9 00 00 00 00 	jmp	0 <__ZNSt3__114__split_bufferINS_12basic_stringIcNS_11char_traitsIcEENS_9allocatorIcEEEERNS4_IS6_EEE17__destruct_at_endEPS6_NS_17integral_constantIbLb0EEE+0x60>
100002710:	e9 b3 ff ff ff 	jmp	-77 <__ZNSt3__114__split_bufferINS_12basic_stringIcNS_11char_traitsIcEENS_9allocatorIcEEEERNS4_IS6_EEE17__destruct_at_endEPS6_NS_17integral_constantIbLb0EEE+0x18>
100002715:	89 d1 	movl	%edx, %ecx
100002717:	48 89 45 e0 	movq	%rax, -32(%rbp)
10000271b:	89 4d dc 	movl	%ecx, -36(%rbp)
10000271e:	48 8b 7d e0 	movq	-32(%rbp), %rdi
100002722:	e8 71 13 00 00 	callq	4977 <dyld_stub_binder+0x100003a98>
100002727:	48 83 c4 40 	addq	$64, %rsp
10000272b:	5d 	popq	%rbp
10000272c:	c3 	retq
10000272d:	0f 1f 00 	nopl	(%rax)
100002730:	55 	pushq	%rbp
100002731:	48 89 e5 	movq	%rsp, %rbp
100002734:	48 83 ec 10 	subq	$16, %rsp
100002738:	48 89 7d f8 	movq	%rdi, -8(%rbp)
10000273c:	48 8b 7d f8 	movq	-8(%rbp), %rdi
100002740:	48 83 c7 18 	addq	$24, %rdi
100002744:	e8 07 00 00 00 	callq	7 <__ZNKSt3__117__compressed_pairIPNS_12basic_stringIcNS_11char_traitsIcEENS_9allocatorIcEEEERNS4_IS6_EEE5firstEv>
100002749:	48 83 c4 10 	addq	$16, %rsp
10000274d:	5d 	popq	%rbp
10000274e:	c3 	retq
10000274f:	90 	nop
100002750:	55 	pushq	%rbp
100002751:	48 89 e5 	movq	%rsp, %rbp
100002754:	48 83 ec 10 	subq	$16, %rsp
100002758:	48 89 7d f8 	movq	%rdi, -8(%rbp)
10000275c:	48 8b 7d f8 	movq	-8(%rbp), %rdi
100002760:	e8 4b ef ff ff 	callq	-4277 <__ZNKSt3__122__compressed_pair_elemIPNS_12basic_stringIcNS_11char_traitsIcEENS_9allocatorIcEEEELi0ELb0EE5__getEv>
100002765:	48 83 c4 10 	addq	$16, %rsp
100002769:	5d 	popq	%rbp
10000276a:	c3 	retq
10000276b:	0f 1f 44 00 00 	nopl	(%rax,%rax)
100002770:	55 	pushq	%rbp
100002771:	48 89 e5 	movq	%rsp, %rbp
100002774:	48 83 ec 20 	subq	$32, %rsp
100002778:	48 89 7d f8 	movq	%rdi, -8(%rbp)
10000277c:	48 89 75 f0 	movq	%rsi, -16(%rbp)
100002780:	48 8b 75 f8 	movq	-8(%rbp), %rsi
100002784:	48 89 f7 	movq	%rsi, %rdi
100002787:	48 89 75 e8 	movq	%rsi, -24(%rbp)
10000278b:	e8 30 00 00 00 	callq	48 <__ZNSt3__117__compressed_pairINS_12basic_stringIcNS_11char_traitsIcEENS_9allocatorIcEEE5__repES5_EC1Ev>
100002790:	48 8b 75 f0 	movq	-16(%rbp), %rsi
100002794:	48 8b 7d f0 	movq	-16(%rbp), %rdi
100002798:	48 89 75 e0 	movq	%rsi, -32(%rbp)
10000279c:	e8 43 12 00 00 	callq	4675 <dyld_stub_binder+0x1000039e4>
1000027a1:	48 8b 7d e8 	movq	-24(%rbp), %rdi
1000027a5:	48 8b 75 e0 	movq	-32(%rbp), %rsi
1000027a9:	48 89 c2 	movq	%rax, %rdx
1000027ac:	e8 39 12 00 00 	callq	4665 <dyld_stub_binder+0x1000039ea>
1000027b1:	48 83 c4 20 	addq	$32, %rsp
1000027b5:	5d 	popq	%rbp
1000027b6:	c3 	retq
1000027b7:	66 0f 1f 84 00 00 00 00 00 	nopw	(%rax,%rax)
1000027c0:	55 	pushq	%rbp
1000027c1:	48 89 e5 	movq	%rsp, %rbp
1000027c4:	48 83 ec 10 	subq	$16, %rsp
1000027c8:	48 89 7d f8 	movq	%rdi, -8(%rbp)
1000027cc:	48 8b 7d f8 	movq	-8(%rbp), %rdi
1000027d0:	e8 2b 00 00 00 	callq	43 <__ZNSt3__117__compressed_pairINS_12basic_stringIcNS_11char_traitsIcEENS_9allocatorIcEEE5__repES5_EC2Ev>
1000027d5:	48 83 c4 10 	addq	$16, %rsp
1000027d9:	5d 	popq	%rbp
1000027da:	c3 	retq
1000027db:	0f 1f 44 00 00 	nopl	(%rax,%rax)
1000027e0:	55 	pushq	%rbp
1000027e1:	48 89 e5 	movq	%rsp, %rbp
1000027e4:	48 83 ec 10 	subq	$16, %rsp
1000027e8:	48 89 7d f8 	movq	%rdi, -8(%rbp)
1000027ec:	48 8b 7d f8 	movq	-8(%rbp), %rdi
1000027f0:	e8 c1 12 00 00 	callq	4801 <dyld_stub_binder+0x100003ab6>
1000027f5:	48 83 c4 10 	addq	$16, %rsp
1000027f9:	5d 	popq	%rbp
1000027fa:	c3 	retq
1000027fb:	0f 1f 44 00 00 	nopl	(%rax,%rax)
100002800:	55 	pushq	%rbp
100002801:	48 89 e5 	movq	%rsp, %rbp
100002804:	48 83 ec 10 	subq	$16, %rsp
100002808:	48 89 7d f8 	movq	%rdi, -8(%rbp)
10000280c:	48 8b 7d f8 	movq	-8(%rbp), %rdi
100002810:	48 89 f8 	movq	%rdi, %rax
100002813:	48 89 7d f0 	movq	%rdi, -16(%rbp)
100002817:	48 89 c7 	movq	%rax, %rdi
10000281a:	e8 21 00 00 00 	callq	33 <__ZNSt3__122__compressed_pair_elemINS_12basic_stringIcNS_11char_traitsIcEENS_9allocatorIcEEE5__repELi0ELb0EEC2Ev>
10000281f:	48 8b 45 f0 	movq	-16(%rbp), %rax
100002823:	48 89 c7 	movq	%rax, %rdi
100002826:	e8 45 00 00 00 	callq	69 <__ZNSt3__122__compressed_pair_elemINS_9allocatorIcEELi1ELb1EEC2Ev>
10000282b:	48 83 c4 10 	addq	$16, %rsp
10000282f:	5d 	popq	%rbp
100002830:	c3 	retq
100002831:	66 2e 0f 1f 84 00 00 00 00 00 	nopw	%cs:(%rax,%rax)
10000283b:	0f 1f 44 00 00 	nopl	(%rax,%rax)
100002840:	55 	pushq	%rbp
100002841:	48 89 e5 	movq	%rsp, %rbp
100002844:	48 83 ec 10 	subq	$16, %rsp
100002848:	31 f6 	xorl	%esi, %esi
10000284a:	48 89 7d f8 	movq	%rdi, -8(%rbp)
10000284e:	48 8b 7d f8 	movq	-8(%rbp), %rdi
100002852:	ba 18 00 00 00 	movl	$24, %edx
100002857:	e8 54 12 00 00 	callq	4692 <dyld_stub_binder+0x100003ab0>
10000285c:	48 83 c4 10 	addq	$16, %rsp
100002860:	5d 	popq	%rbp
100002861:	c3 	retq
100002862:	66 2e 0f 1f 84 00 00 00 00 00 	nopw	%cs:(%rax,%rax)
10000286c:	0f 1f 40 00 	nopl	(%rax)
100002870:	55 	pushq	%rbp
100002871:	48 89 e5 	movq	%rsp, %rbp
100002874:	48 83 ec 10 	subq	$16, %rsp
100002878:	48 89 7d f8 	movq	%rdi, -8(%rbp)
10000287c:	48 8b 7d f8 	movq	-8(%rbp), %rdi
100002880:	e8 0b 00 00 00 	callq	11 <__ZNSt3__19allocatorIcEC2Ev>
100002885:	48 83 c4 10 	addq	$16, %rsp
100002889:	5d 	popq	%rbp
10000288a:	c3 	retq
10000288b:	0f 1f 44 00 00 	nopl	(%rax,%rax)
100002890:	55 	pushq	%rbp
100002891:	48 89 e5 	movq	%rsp, %rbp
100002894:	48 89 7d f8 	movq	%rdi, -8(%rbp)
100002898:	5d 	popq	%rbp
100002899:	c3 	retq
10000289a:	66 0f 1f 44 00 00 	nopw	(%rax,%rax)
1000028a0:	55 	pushq	%rbp
1000028a1:	48 89 e5 	movq	%rsp, %rbp
1000028a4:	48 83 ec 50 	subq	$80, %rsp
1000028a8:	48 89 7d f8 	movq	%rdi, -8(%rbp)
1000028ac:	48 89 75 f0 	movq	%rsi, -16(%rbp)
1000028b0:	48 8b 75 f8 	movq	-8(%rbp), %rsi
1000028b4:	48 89 f7 	movq	%rsi, %rdi
1000028b7:	48 8b 45 f0 	movq	-16(%rbp), %rax
1000028bb:	48 89 7d c0 	movq	%rdi, -64(%rbp)
1000028bf:	48 89 c7 	movq	%rax, %rdi
1000028c2:	48 89 75 b8 	movq	%rsi, -72(%rbp)
1000028c6:	e8 b5 f5 ff ff 	callq	-2635 <__ZNKSt3__113__vector_baseINS_12basic_stringIcNS_11char_traitsIcEENS_9allocatorIcEEEENS4_IS6_EEE7__allocEv>
1000028cb:	48 89 c7 	movq	%rax, %rdi
1000028ce:	e8 9d 00 00 00 	callq	157 <__ZNSt3__116allocator_traitsINS_9allocatorINS_12basic_stringIcNS_11char_traitsIcEENS1_IcEEEEEEE37select_on_container_copy_constructionERKS7_>
1000028d3:	48 8b 7d c0 	movq	-64(%rbp), %rdi
1000028d7:	48 8d 75 e8 	leaq	-24(%rbp), %rsi
1000028db:	e8 b0 00 00 00 	callq	176 <__ZNSt3__113__vector_baseINS_12basic_stringIcNS_11char_traitsIcEENS_9allocatorIcEEEENS4_IS6_EEEC2ERKS7_>
1000028e0:	48 8b 7d f0 	movq	-16(%rbp), %rdi
1000028e4:	e8 37 e5 ff ff 	callq	-6857 <__ZNKSt3__16vectorINS_12basic_stringIcNS_11char_traitsIcEENS_9allocatorIcEEEENS4_IS6_EEE4sizeEv>
1000028e9:	48 89 45 d8 	movq	%rax, -40(%rbp)
1000028ed:	48 83 7d d8 00 	cmpq	$0, -40(%rbp)
1000028f2:	0f 86 4b 00 00 00 	jbe	75 <__ZNSt3__16vectorINS_12basic_stringIcNS_11char_traitsIcEENS_9allocatorIcEEEENS4_IS6_EEEC2ERKS8_+0xa3>
1000028f8:	48 8b 75 d8 	movq	-40(%rbp), %rsi
1000028fc:	48 8b 7d b8 	movq	-72(%rbp), %rdi
100002900:	e8 3f 11 00 00 	callq	4415 <dyld_stub_binder+0x100003a44>
100002905:	e9 00 00 00 00 	jmp	0 <__ZNSt3__16vectorINS_12basic_stringIcNS_11char_traitsIcEENS_9allocatorIcEEEENS4_IS6_EEEC2ERKS8_+0x6a>
10000290a:	48 8b 45 f0 	movq	-16(%rbp), %rax
10000290e:	48 8b 30 	movq	(%rax), %rsi
100002911:	48 8b 50 08 	movq	8(%rax), %rdx
100002915:	48 8b 4d d8 	movq	-40(%rbp), %rcx
100002919:	48 8b 7d b8 	movq	-72(%rbp), %rdi
10000291d:	e8 28 11 00 00 	callq	4392 <dyld_stub_binder+0x100003a4a>
100002922:	e9 00 00 00 00 	jmp	0 <__ZNSt3__16vectorINS_12basic_stringIcNS_11char_traitsIcEENS_9allocatorIcEEEENS4_IS6_EEEC2ERKS8_+0x87>
100002927:	e9 17 00 00 00 	jmp	23 <__ZNSt3__16vectorINS_12basic_stringIcNS_11char_traitsIcEENS_9allocatorIcEEEENS4_IS6_EEEC2ERKS8_+0xa3>
10000292c:	89 d1 	movl	%edx, %ecx
10000292e:	48 89 45 d0 	movq	%rax, -48(%rbp)
100002932:	89 4d cc 	movl	%ecx, -52(%rbp)
100002935:	48 8b 7d b8 	movq	-72(%rbp), %rdi
100002939:	e8 02 ec ff ff 	callq	-5118 <__ZNSt3__113__vector_baseINS_12basic_stringIcNS_11char_traitsIcEENS_9allocatorIcEEEENS4_IS6_EEED2Ev>
10000293e:	e9 06 00 00 00 	jmp	6 <__ZNSt3__16vectorINS_12basic_stringIcNS_11char_traitsIcEENS_9allocatorIcEEEENS4_IS6_EEEC2ERKS8_+0xa9>
100002943:	48 83 c4 50 	addq	$80, %rsp
100002947:	5d 	popq	%rbp
100002948:	c3 	retq
100002949:	e9 00 00 00 00 	jmp	0 <__ZNSt3__16vectorINS_12basic_stringIcNS_11char_traitsIcEENS_9allocatorIcEEEENS4_IS6_EEEC2ERKS8_+0xae>
10000294e:	48 8b 7d d0 	movq	-48(%rbp), %rdi
100002952:	e8 5d 10 00 00 	callq	4189 <dyld_stub_binder+0x1000039b4>
100002957:	0f 0b 	ud2
100002959:	48 89 c7 	movq	%rax, %rdi
10000295c:	48 89 55 b0 	movq	%rdx, -80(%rbp)
100002960:	e8 8b e4 ff ff 	callq	-7029 <___clang_call_terminate>
100002965:	66 2e 0f 1f 84 00 00 00 00 00 	nopw	%cs:(%rax,%rax)
10000296f:	90 	nop
100002970:	55 	pushq	%rbp
100002971:	48 89 e5 	movq	%rsp, %rbp
100002974:	48 83 ec 30 	subq	$48, %rsp
100002978:	48 89 7d f0 	movq	%rdi, -16(%rbp)
10000297c:	48 8b 7d f0 	movq	-16(%rbp), %rdi
100002980:	e8 9b 01 00 00 	callq	411 <__ZNSt3__116allocator_traitsINS_9allocatorINS_12basic_stringIcNS_11char_traitsIcEENS1_IcEEEEEEE39__select_on_container_copy_constructionENS_17integral_constantIbLb0EEERKS7_>
100002985:	48 83 c4 30 	addq	$48, %rsp
100002989:	5d 	popq	%rbp
10000298a:	c3 	retq
10000298b:	0f 1f 44 00 00 	nopl	(%rax,%rax)
100002990:	55 	pushq	%rbp
100002991:	48 89 e5 	movq	%rsp, %rbp
100002994:	48 83 ec 40 	subq	$64, %rsp
100002998:	48 89 7d f8 	movq	%rdi, -8(%rbp)
10000299c:	48 89 75 f0 	movq	%rsi, -16(%rbp)
1000029a0:	48 8b 75 f8 	movq	-8(%rbp), %rsi
1000029a4:	48 89 f7 	movq	%rsi, %rdi
1000029a7:	48 89 75 c8 	movq	%rsi, -56(%rbp)
1000029ab:	e8 c0 e8 ff ff 	callq	-5952 <__ZNSt3__120__vector_base_commonILb1EEC2Ev>
1000029b0:	e8 cb e8 ff ff 	callq	-5941 <__ZNSt3__1L15__get_nullptr_tEv>
1000029b5:	48 89 45 e8 	movq	%rax, -24(%rbp)
1000029b9:	48 8d 7d e8 	leaq	-24(%rbp), %rdi
1000029bd:	e8 ee e8 ff ff 	callq	-5906 <__ZNKSt3__19nullptr_tcvPT_INS_12basic_stringIcNS_11char_traitsIcEENS_9allocatorIcEEEEEEv>
1000029c2:	48 8b 75 c8 	movq	-56(%rbp), %rsi
1000029c6:	48 89 06 	movq	%rax, (%rsi)
1000029c9:	e8 b2 e8 ff ff 	callq	-5966 <__ZNSt3__1L15__get_nullptr_tEv>
1000029ce:	48 89 45 e0 	movq	%rax, -32(%rbp)
1000029d2:	48 8d 7d e0 	leaq	-32(%rbp), %rdi
1000029d6:	e8 d5 e8 ff ff 	callq	-5931 <__ZNKSt3__19nullptr_tcvPT_INS_12basic_stringIcNS_11char_traitsIcEENS_9allocatorIcEEEEEEv>
1000029db:	48 8b 75 c8 	movq	-56(%rbp), %rsi
1000029df:	48 89 46 08 	movq	%rax, 8(%rsi)
1000029e3:	48 83 c6 10 	addq	$16, %rsi
1000029e7:	48 89 75 c0 	movq	%rsi, -64(%rbp)
1000029eb:	e8 90 e8 ff ff 	callq	-6000 <__ZNSt3__1L15__get_nullptr_tEv>
1000029f0:	48 89 45 d8 	movq	%rax, -40(%rbp)
1000029f4:	48 8d 7d d8 	leaq	-40(%rbp), %rdi
1000029f8:	e8 b3 e8 ff ff 	callq	-5965 <__ZNKSt3__19nullptr_tcvPT_INS_12basic_stringIcNS_11char_traitsIcEENS_9allocatorIcEEEEEEv>
1000029fd:	48 8b 7d c0 	movq	-64(%rbp), %rdi
100002a01:	48 89 c6 	movq	%rax, %rsi
100002a04:	e8 27 01 00 00 	callq	295 <__ZNSt3__117__compressed_pairIPNS_12basic_stringIcNS_11char_traitsIcEENS_9allocatorIcEEEENS4_IS6_EEEC1ES7_S8_>
100002a09:	48 83 c4 40 	addq	$64, %rsp
100002a0d:	5d 	popq	%rbp
100002a0e:	c3 	retq
100002a0f:	90 	nop
100002a10:	55 	pushq	%rbp
100002a11:	48 89 e5 	movq	%rsp, %rbp
100002a14:	48 83 ec 30 	subq	$48, %rsp
100002a18:	48 89 7d f8 	movq	%rdi, -8(%rbp)
100002a1c:	48 89 75 f0 	movq	%rsi, -16(%rbp)
100002a20:	48 8b 75 f8 	movq	-8(%rbp), %rsi
100002a24:	48 8b 7d f0 	movq	-16(%rbp), %rdi
100002a28:	48 89 7d e8 	movq	%rdi, -24(%rbp)
100002a2c:	48 89 f7 	movq	%rsi, %rdi
100002a2f:	48 89 75 e0 	movq	%rsi, -32(%rbp)
100002a33:	e8 8e 0f 00 00 	callq	3982 <dyld_stub_binder+0x1000039c6>
100002a38:	48 8b 75 e8 	movq	-24(%rbp), %rsi
100002a3c:	48 39 c6 	cmpq	%rax, %rsi
100002a3f:	0f 86 09 00 00 00 	jbe	9 <__ZNSt3__16vectorINS_12basic_stringIcNS_11char_traitsIcEENS_9allocatorIcEEEENS4_IS6_EEE11__vallocateEm+0x3e>
100002a45:	48 8b 7d e0 	movq	-32(%rbp), %rdi
100002a49:	e8 6c 0f 00 00 	callq	3948 <dyld_stub_binder+0x1000039ba>
100002a4e:	48 8b 45 e0 	movq	-32(%rbp), %rax
100002a52:	48 89 c7 	movq	%rax, %rdi
100002a55:	e8 b6 ec ff ff 	callq	-4938 <__ZNSt3__113__vector_baseINS_12basic_stringIcNS_11char_traitsIcEENS_9allocatorIcEEEENS4_IS6_EEE7__allocEv>
100002a5a:	48 8b 75 f0 	movq	-16(%rbp), %rsi
100002a5e:	48 89 c7 	movq	%rax, %rdi
100002a61:	e8 aa f6 ff ff 	callq	-2390 <__ZNSt3__116allocator_traitsINS_9allocatorINS_12basic_stringIcNS_11char_traitsIcEENS1_IcEEEEEEE8allocateERS7_m>
100002a66:	48 8b 75 e0 	movq	-32(%rbp), %rsi
100002a6a:	48 89 46 08 	movq	%rax, 8(%rsi)
100002a6e:	48 89 06 	movq	%rax, (%rsi)
100002a71:	48 8b 06 	movq	(%rsi), %rax
100002a74:	48 6b 7d f0 18 	imulq	$24, -16(%rbp), %rdi
100002a79:	48 01 f8 	addq	%rdi, %rax
100002a7c:	48 89 f7 	movq	%rsi, %rdi
100002a7f:	48 89 45 d8 	movq	%rax, -40(%rbp)
100002a83:	e8 e8 ee ff ff 	callq	-4376 <__ZNSt3__113__vector_baseINS_12basic_stringIcNS_11char_traitsIcEENS_9allocatorIcEEEENS4_IS6_EEE9__end_capEv>
100002a88:	31 c9 	xorl	%ecx, %ecx
100002a8a:	89 ce 	movl	%ecx, %esi
100002a8c:	48 8b 7d d8 	movq	-40(%rbp), %rdi
100002a90:	48 89 38 	movq	%rdi, (%rax)
100002a93:	48 8b 7d e0 	movq	-32(%rbp), %rdi
100002a97:	e8 14 fa ff ff 	callq	-1516 <__ZNKSt3__16vectorINS_12basic_stringIcNS_11char_traitsIcEENS_9allocatorIcEEEENS4_IS6_EEE14__annotate_newEm>
100002a9c:	48 83 c4 30 	addq	$48, %rsp
100002aa0:	5d 	popq	%rbp
100002aa1:	c3 	retq
100002aa2:	66 2e 0f 1f 84 00 00 00 00 00 	nopw	%cs:(%rax,%rax)
100002aac:	0f 1f 40 00 	nopl	(%rax)
100002ab0:	55 	pushq	%rbp
100002ab1:	48 89 e5 	movq	%rsp, %rbp
100002ab4:	48 83 ec 40 	subq	$64, %rsp
100002ab8:	48 89 7d f8 	movq	%rdi, -8(%rbp)
100002abc:	48 89 75 f0 	movq	%rsi, -16(%rbp)
100002ac0:	48 89 55 e8 	movq	%rdx, -24(%rbp)
100002ac4:	48 89 4d e0 	movq	%rcx, -32(%rbp)
100002ac8:	48 8b 4d f8 	movq	-8(%rbp), %rcx
100002acc:	48 89 ca 	movq	%rcx, %rdx
100002acf:	48 89 d7 	movq	%rdx, %rdi
100002ad2:	48 89 4d c8 	movq	%rcx, -56(%rbp)
100002ad6:	e8 35 ec ff ff 	callq	-5067 <__ZNSt3__113__vector_baseINS_12basic_stringIcNS_11char_traitsIcEENS_9allocatorIcEEEENS4_IS6_EEE7__allocEv>
100002adb:	48 89 45 d8 	movq	%rax, -40(%rbp)
100002adf:	48 8b 55 e0 	movq	-32(%rbp), %rdx
100002ae3:	48 8d 7d d0 	leaq	-48(%rbp), %rdi
100002ae7:	48 8b 75 c8 	movq	-56(%rbp), %rsi
100002aeb:	e8 a0 ee ff ff 	callq	-4448 <__ZNSt3__16vectorINS_12basic_stringIcNS_11char_traitsIcEENS_9allocatorIcEEEENS4_IS6_EEE24__RAII_IncreaseAnnotatorC1ERKS8_m>
100002af0:	48 8b 7d d8 	movq	-40(%rbp), %rdi
100002af4:	48 8b 75 f0 	movq	-16(%rbp), %rsi
100002af8:	48 8b 55 e8 	movq	-24(%rbp), %rdx
100002afc:	48 8b 45 c8 	movq	-56(%rbp), %rax
100002b00:	48 83 c0 08 	addq	$8, %rax
100002b04:	48 89 c1 	movq	%rax, %rcx
100002b07:	e8 e4 00 00 00 	callq	228 <__ZNSt3__116allocator_traitsINS_9allocatorINS_12basic_stringIcNS_11char_traitsIcEENS1_IcEEEEEEE25__construct_range_forwardIPS6_SA_EEvRS7_T_SC_RT0_>
100002b0c:	48 8d 7d d0 	leaq	-48(%rbp), %rdi
100002b10:	e8 db ee ff ff 	callq	-4389 <__ZNSt3__16vectorINS_12basic_stringIcNS_11char_traitsIcEENS_9allocatorIcEEEENS4_IS6_EEE24__RAII_IncreaseAnnotator6__doneEv>
100002b15:	48 83 c4 40 	addq	$64, %rsp
100002b19:	5d 	popq	%rbp
100002b1a:	c3 	retq
100002b1b:	0f 1f 44 00 00 	nopl	(%rax,%rax)
100002b20:	55 	pushq	%rbp
100002b21:	48 89 e5 	movq	%rsp, %rbp
100002b24:	48 89 7d e8 	movq	%rdi, -24(%rbp)
100002b28:	5d 	popq	%rbp
100002b29:	c3 	retq
100002b2a:	66 0f 1f 44 00 00 	nopw	(%rax,%rax)
100002b30:	55 	pushq	%rbp
100002b31:	48 89 e5 	movq	%rsp, %rbp
100002b34:	48 83 ec 20 	subq	$32, %rsp
100002b38:	48 89 7d f0 	movq	%rdi, -16(%rbp)
100002b3c:	48 89 75 e8 	movq	%rsi, -24(%rbp)
100002b40:	48 8b 7d f0 	movq	-16(%rbp), %rdi
100002b44:	48 8b 75 e8 	movq	-24(%rbp), %rsi
100002b48:	e8 13 00 00 00 	callq	19 <__ZNSt3__117__compressed_pairIPNS_12basic_stringIcNS_11char_traitsIcEENS_9allocatorIcEEEENS4_IS6_EEEC2ES7_S8_>
100002b4d:	48 83 c4 20 	addq	$32, %rsp
100002b51:	5d 	popq	%rbp
100002b52:	c3 	retq
100002b53:	66 2e 0f 1f 84 00 00 00 00 00 	nopw	%cs:(%rax,%rax)
100002b5d:	0f 1f 00 	nopl	(%rax)
100002b60:	55 	pushq	%rbp
100002b61:	48 89 e5 	movq	%rsp, %rbp
100002b64:	48 83 ec 40 	subq	$64, %rsp
100002b68:	48 89 7d f0 	movq	%rdi, -16(%rbp)
100002b6c:	48 89 75 e8 	movq	%rsi, -24(%rbp)
100002b70:	48 8b 75 f0 	movq	-16(%rbp), %rsi
100002b74:	48 89 f7 	movq	%rsi, %rdi
100002b77:	48 8d 45 e8 	leaq	-24(%rbp), %rax
100002b7b:	48 89 7d d8 	movq	%rdi, -40(%rbp)
100002b7f:	48 89 c7 	movq	%rax, %rdi
100002b82:	48 89 75 d0 	movq	%rsi, -48(%rbp)
100002b86:	e8 05 e8 ff ff 	callq	-6139 <__ZNSt3__1L7forwardIPNS_12basic_stringIcNS_11char_traitsIcEENS_9allocatorIcEEEEEERT_RNS_16remove_referenceIS8_E4typeE>
100002b8b:	48 8b 30 	movq	(%rax), %rsi
100002b8e:	48 8b 7d d8 	movq	-40(%rbp), %rdi
100002b92:	e8 09 e8 ff ff 	callq	-6135 <__ZNSt3__122__compressed_pair_elemIPNS_12basic_stringIcNS_11char_traitsIcEENS_9allocatorIcEEEELi0ELb0EEC2ES7_>
100002b97:	48 8b 45 d0 	movq	-48(%rbp), %rax
100002b9b:	48 8d 7d f8 	leaq	-8(%rbp), %rdi
100002b9f:	48 89 45 c8 	movq	%rax, -56(%rbp)
100002ba3:	e8 18 00 00 00 	callq	24 <__ZNSt3__1L7forwardINS_9allocatorINS_12basic_stringIcNS_11char_traitsIcEENS1_IcEEEEEEEERT_RNS_16remove_referenceIS8_E4typeE>
100002ba8:	48 8b 7d c8 	movq	-56(%rbp), %rdi
100002bac:	48 89 45 c0 	movq	%rax, -64(%rbp)
100002bb0:	e8 1b 00 00 00 	callq	27 <__ZNSt3__122__compressed_pair_elemINS_9allocatorINS_12basic_stringIcNS_11char_traitsIcEENS1_IcEEEEEELi1ELb1EEC2ES7_>
100002bb5:	48 83 c4 40 	addq	$64, %rsp
100002bb9:	5d 	popq	%rbp
100002bba:	c3 	retq
100002bbb:	0f 1f 44 00 00 	nopl	(%rax,%rax)
100002bc0:	55 	pushq	%rbp
100002bc1:	48 89 e5 	movq	%rsp, %rbp
100002bc4:	48 89 7d f8 	movq	%rdi, -8(%rbp)
100002bc8:	48 8b 45 f8 	movq	-8(%rbp), %rax
100002bcc:	5d 	popq	%rbp
100002bcd:	c3 	retq
100002bce:	66 90 	nop
100002bd0:	55 	pushq	%rbp
100002bd1:	48 89 e5 	movq	%rsp, %rbp
100002bd4:	48 83 ec 20 	subq	$32, %rsp
100002bd8:	48 89 7d f0 	movq	%rdi, -16(%rbp)
100002bdc:	48 8d 7d f8 	leaq	-8(%rbp), %rdi
100002be0:	e8 db ff ff ff 	callq	-37 <__ZNSt3__1L7forwardINS_9allocatorINS_12basic_stringIcNS_11char_traitsIcEENS1_IcEEEEEEEERT_RNS_16remove_referenceIS8_E4typeE>
100002be5:	48 89 45 e8 	movq	%rax, -24(%rbp)
100002be9:	48 83 c4 20 	addq	$32, %rsp
100002bed:	5d 	popq	%rbp
100002bee:	c3 	retq
100002bef:	90 	nop
100002bf0:	55 	pushq	%rbp
100002bf1:	48 89 e5 	movq	%rsp, %rbp
100002bf4:	48 83 ec 30 	subq	$48, %rsp
100002bf8:	48 89 7d f8 	movq	%rdi, -8(%rbp)
100002bfc:	48 89 75 f0 	movq	%rsi, -16(%rbp)
100002c00:	48 89 55 e8 	movq	%rdx, -24(%rbp)
100002c04:	48 89 4d e0 	movq	%rcx, -32(%rbp)
100002c08:	48 8b 45 f0 	movq	-16(%rbp), %rax
100002c0c:	48 3b 45 e8 	cmpq	-24(%rbp), %rax
100002c10:	0f 84 46 00 00 00 	je	70 <__ZNSt3__116allocator_traitsINS_9allocatorINS_12basic_stringIcNS_11char_traitsIcEENS1_IcEEEEEEE25__construct_range_forwardIPS6_SA_EEvRS7_T_SC_RT0_+0x6c>
100002c16:	48 8b 7d f8 	movq	-8(%rbp), %rdi
100002c1a:	48 8b 45 e0 	movq	-32(%rbp), %rax
100002c1e:	48 8b 00 	movq	(%rax), %rax
100002c21:	48 89 7d d8 	movq	%rdi, -40(%rbp)
100002c25:	48 89 c7 	movq	%rax, %rdi
100002c28:	e8 f3 e9 ff ff 	callq	-5645 <__ZNSt3__1L16__to_raw_pointerINS_12basic_stringIcNS_11char_traitsIcEENS_9allocatorIcEEEEEEPT_S8_>
100002c2d:	48 8b 55 f0 	movq	-16(%rbp), %rdx
100002c31:	48 8b 7d d8 	movq	-40(%rbp), %rdi
100002c35:	48 89 c6 	movq	%rax, %rsi
100002c38:	e8 83 ed ff ff 	callq	-4733 <__ZNSt3__116allocator_traitsINS_9allocatorINS_12basic_stringIcNS_11char_traitsIcEENS1_IcEEEEEEE9constructIS6_S6_EEvRS7_PT_RKT0_>
100002c3d:	48 8b 45 f0 	movq	-16(%rbp), %rax
100002c41:	48 83 c0 18 	addq	$24, %rax
100002c45:	48 89 45 f0 	movq	%rax, -16(%rbp)
100002c49:	48 8b 45 e0 	movq	-32(%rbp), %rax
100002c4d:	48 8b 08 	movq	(%rax), %rcx
100002c50:	48 83 c1 18 	addq	$24, %rcx
100002c54:	48 89 08 	movq	%rcx, (%rax)
100002c57:	e9 ac ff ff ff 	jmp	-84 <__ZNSt3__116allocator_traitsINS_9allocatorINS_12basic_stringIcNS_11char_traitsIcEENS1_IcEEEEEEE25__construct_range_forwardIPS6_SA_EEvRS7_T_SC_RT0_+0x18>
100002c5c:	48 83 c4 30 	addq	$48, %rsp
100002c60:	5d 	popq	%rbp
100002c61:	c3 	retq
100002c62:	66 2e 0f 1f 84 00 00 00 00 00 	nopw	%cs:(%rax,%rax)
100002c6c:	0f 1f 40 00 	nopl	(%rax)
100002c70:	55 	pushq	%rbp
100002c71:	48 89 e5 	movq	%rsp, %rbp
100002c74:	48 83 ec 20 	subq	$32, %rsp
100002c78:	48 89 7d f0 	movq	%rdi, -16(%rbp)
100002c7c:	48 8b 7d f0 	movq	-16(%rbp), %rdi
100002c80:	e8 bb 00 00 00 	callq	187 <__ZNKSt3__112basic_stringIcNS_11char_traitsIcEENS_9allocatorIcEEE7__allocEv>
100002c85:	48 89 45 e8 	movq	%rax, -24(%rbp)
100002c89:	48 83 c4 20 	addq	$32, %rsp
100002c8d:	5d 	popq	%rbp
100002c8e:	c3 	retq
100002c8f:	90 	nop
100002c90:	55 	pushq	%rbp
100002c91:	48 89 e5 	movq	%rsp, %rbp
100002c94:	48 83 ec 10 	subq	$16, %rsp
100002c98:	48 89 7d f8 	movq	%rdi, -8(%rbp)
100002c9c:	48 89 75 f0 	movq	%rsi, -16(%rbp)
100002ca0:	48 8b 7d f8 	movq	-8(%rbp), %rdi
100002ca4:	48 8b 75 f0 	movq	-16(%rbp), %rsi
100002ca8:	e8 f3 00 00 00 	callq	243 <__ZNSt3__112basic_stringIcNS_11char_traitsIcEENS_9allocatorIcEEEC2ERKS4_>
100002cad:	48 83 c4 10 	addq	$16, %rsp
100002cb1:	5d 	popq	%rbp
100002cb2:	c3 	retq
100002cb3:	66 2e 0f 1f 84 00 00 00 00 00 	nopw	%cs:(%rax,%rax)
100002cbd:	0f 1f 00 	nopl	(%rax)
100002cc0:	55 	pushq	%rbp
100002cc1:	48 89 e5 	movq	%rsp, %rbp
100002cc4:	48 83 ec 20 	subq	$32, %rsp
100002cc8:	48 89 7d f8 	movq	%rdi, -8(%rbp)
100002ccc:	48 8b 7d f8 	movq	-8(%rbp), %rdi
100002cd0:	48 89 7d f0 	movq	%rdi, -16(%rbp)
100002cd4:	e8 17 02 00 00 	callq	535 <__ZNKSt3__112basic_stringIcNS_11char_traitsIcEENS_9allocatorIcEEE9__is_longEv>
100002cd9:	a8 01 	testb	$1, %al
100002cdb:	0f 85 05 00 00 00 	jne	5 <__ZNKSt3__112basic_stringIcNS_11char_traitsIcEENS_9allocatorIcEEE4sizeEv+0x26>
100002ce1:	e9 12 00 00 00 	jmp	18 <__ZNKSt3__112basic_stringIcNS_11char_traitsIcEENS_9allocatorIcEEE4sizeEv+0x38>
100002ce6:	48 8b 7d f0 	movq	-16(%rbp), %rdi
100002cea:	e8 41 02 00 00 	callq	577 <__ZNKSt3__112basic_stringIcNS_11char_traitsIcEENS_9allocatorIcEEE15__get_long_sizeEv>
100002cef:	48 89 45 e8 	movq	%rax, -24(%rbp)
100002cf3:	e9 0d 00 00 00 	jmp	13 <__ZNKSt3__112basic_stringIcNS_11char_traitsIcEENS_9allocatorIcEEE4sizeEv+0x45>
100002cf8:	48 8b 7d f0 	movq	-16(%rbp), %rdi
100002cfc:	e8 4f 02 00 00 	callq	591 <__ZNKSt3__112basic_stringIcNS_11char_traitsIcEENS_9allocatorIcEEE16__get_short_sizeEv>
100002d01:	48 89 45 e8 	movq	%rax, -24(%rbp)
100002d05:	48 8b 45 e8 	movq	-24(%rbp), %rax
100002d09:	48 83 c4 20 	addq	$32, %rsp
100002d0d:	5d 	popq	%rbp
100002d0e:	c3 	retq
100002d0f:	90 	nop
100002d10:	55 	pushq	%rbp
100002d11:	48 89 e5 	movq	%rsp, %rbp
100002d14:	48 83 ec 10 	subq	$16, %rsp
100002d18:	48 89 7d f8 	movq	%rdi, -8(%rbp)
100002d1c:	48 8b 7d f8 	movq	-8(%rbp), %rdi
100002d20:	e8 9b 02 00 00 	callq	667 <__ZNKSt3__112basic_stringIcNS_11char_traitsIcEENS_9allocatorIcEEE13__get_pointerEv>
100002d25:	48 89 c7 	movq	%rax, %rdi
100002d28:	e8 83 02 00 00 	callq	643 <__ZNSt3__1L16__to_raw_pointerIKcEEPT_S3_>
100002d2d:	48 83 c4 10 	addq	$16, %rsp
100002d31:	5d 	popq	%rbp
100002d32:	c3 	retq
100002d33:	66 2e 0f 1f 84 00 00 00 00 00 	nopw	%cs:(%rax,%rax)
100002d3d:	0f 1f 00 	nopl	(%rax)
100002d40:	55 	pushq	%rbp
100002d41:	48 89 e5 	movq	%rsp, %rbp
100002d44:	48 83 ec 10 	subq	$16, %rsp
100002d48:	48 89 7d f8 	movq	%rdi, -8(%rbp)
100002d4c:	48 8b 7d f8 	movq	-8(%rbp), %rdi
100002d50:	e8 0b 00 00 00 	callq	11 <__ZNKSt3__117__compressed_pairINS_12basic_stringIcNS_11char_traitsIcEENS_9allocatorIcEEE5__repES5_E6secondEv>
100002d55:	48 83 c4 10 	addq	$16, %rsp
100002d59:	5d 	popq	%rbp
100002d5a:	c3 	retq
100002d5b:	0f 1f 44 00 00 	nopl	(%rax,%rax)
100002d60:	55 	pushq	%rbp
100002d61:	48 89 e5 	movq	%rsp, %rbp
100002d64:	48 83 ec 10 	subq	$16, %rsp
100002d68:	48 89 7d f8 	movq	%rdi, -8(%rbp)
100002d6c:	48 8b 7d f8 	movq	-8(%rbp), %rdi
100002d70:	e8 0b 00 00 00 	callq	11 <__ZNKSt3__122__compressed_pair_elemINS_9allocatorIcEELi1ELb1EE5__getEv>
100002d75:	48 83 c4 10 	addq	$16, %rsp
100002d79:	5d 	popq	%rbp
100002d7a:	c3 	retq
100002d7b:	0f 1f 44 00 00 	nopl	(%rax,%rax)
100002d80:	55 	pushq	%rbp
100002d81:	48 89 e5 	movq	%rsp, %rbp
100002d84:	48 89 7d f8 	movq	%rdi, -8(%rbp)
100002d88:	48 8b 7d f8 	movq	-8(%rbp), %rdi
100002d8c:	48 89 f8 	movq	%rdi, %rax
100002d8f:	5d 	popq	%rbp
100002d90:	c3 	retq
100002d91:	66 2e 0f 1f 84 00 00 00 00 00 	nopw	%cs:(%rax,%rax)
100002d9b:	0f 1f 44 00 00 	nopl	(%rax,%rax)
100002da0:	55 	pushq	%rbp
100002da1:	48 89 e5 	movq	%rsp, %rbp
100002da4:	48 83 ec 30 	subq	$48, %rsp
100002da8:	48 89 7d f8 	movq	%rdi, -8(%rbp)
100002dac:	48 89 75 f0 	movq	%rsi, -16(%rbp)
100002db0:	48 8b 75 f8 	movq	-8(%rbp), %rsi
100002db4:	48 89 f7 	movq	%rsi, %rdi
100002db7:	48 89 75 d8 	movq	%rsi, -40(%rbp)
100002dbb:	e8 10 00 00 00 	callq	16 <__ZNSt3__117__compressed_pairINS_12basic_stringIcNS_11char_traitsIcEENS_9allocatorIcEEE5__repES5_EC1ENS_12__second_tagES5_>
100002dc0:	48 8b 7d d8 	movq	-40(%rbp), %rdi
100002dc4:	e8 27 00 00 00 	callq	39 <__ZNSt3__112basic_stringIcNS_11char_traitsIcEENS_9allocatorIcEEE6__zeroEv>
100002dc9:	48 83 c4 30 	addq	$48, %rsp
100002dcd:	5d 	popq	%rbp
100002dce:	c3 	retq
100002dcf:	90 	nop
100002dd0:	55 	pushq	%rbp
100002dd1:	48 89 e5 	movq	%rsp, %rbp
100002dd4:	48 83 ec 20 	subq	$32, %rsp
100002dd8:	48 89 7d e8 	movq	%rdi, -24(%rbp)
100002ddc:	48 8b 7d e8 	movq	-24(%rbp), %rdi
100002de0:	e8 5b 00 00 00 	callq	91 <__ZNSt3__117__compressed_pairINS_12basic_stringIcNS_11char_traitsIcEENS_9allocatorIcEEE5__repES5_EC2ENS_12__second_tagES5_>
100002de5:	48 83 c4 20 	addq	$32, %rsp
100002de9:	5d 	popq	%rbp
100002dea:	c3 	retq
100002deb:	0f 1f 44 00 00 	nopl	(%rax,%rax)
100002df0:	55 	pushq	%rbp
100002df1:	48 89 e5 	movq	%rsp, %rbp
100002df4:	48 83 ec 20 	subq	$32, %rsp
100002df8:	48 89 7d f8 	movq	%rdi, -8(%rbp)
100002dfc:	48 8b 7d f8 	movq	-8(%rbp), %rdi
100002e00:	e8 bb 00 00 00 	callq	187 <__ZNSt3__117__compressed_pairINS_12basic_stringIcNS_11char_traitsIcEENS_9allocatorIcEEE5__repES5_E5firstEv>
100002e05:	48 89 45 f0 	movq	%rax, -16(%rbp)
100002e09:	c7 45 ec 00 00 00 00 	movl	$0, -20(%rbp)
100002e10:	83 7d ec 03 	cmpl	$3, -20(%rbp)
100002e14:	0f 83 1f 00 00 00 	jae	31 <__ZNSt3__112basic_stringIcNS_11char_traitsIcEENS_9allocatorIcEEE6__zeroEv+0x49>
100002e1a:	48 8b 45 f0 	movq	-16(%rbp), %rax
100002e1e:	8b 4d ec 	movl	-20(%rbp), %ecx
100002e21:	89 ca 	movl	%ecx, %edx
100002e23:	48 c7 04 d0 00 00 00 00 	movq	$0, (%rax,%rdx,8)
100002e2b:	8b 45 ec 	movl	-20(%rbp), %eax
100002e2e:	83 c0 01 	addl	$1, %eax
100002e31:	89 45 ec 	movl	%eax, -20(%rbp)
100002e34:	e9 d7 ff ff ff 	jmp	-41 <__ZNSt3__112basic_stringIcNS_11char_traitsIcEENS_9allocatorIcEEE6__zeroEv+0x20>
100002e39:	48 83 c4 20 	addq	$32, %rsp
100002e3d:	5d 	popq	%rbp
100002e3e:	c3 	retq
100002e3f:	90 	nop
100002e40:	55 	pushq	%rbp
100002e41:	48 89 e5 	movq	%rsp, %rbp
100002e44:	48 83 ec 40 	subq	$64, %rsp
100002e48:	48 89 7d e8 	movq	%rdi, -24(%rbp)
100002e4c:	48 8b 7d e8 	movq	-24(%rbp), %rdi
100002e50:	48 89 f8 	movq	%rdi, %rax
100002e53:	48 89 7d d8 	movq	%rdi, -40(%rbp)
100002e57:	48 89 c7 	movq	%rax, %rdi
100002e5a:	e8 e1 f9 ff ff 	callq	-1567 <__ZNSt3__122__compressed_pair_elemINS_12basic_stringIcNS_11char_traitsIcEENS_9allocatorIcEEE5__repELi0ELb0EEC2Ev>
100002e5f:	48 8b 45 d8 	movq	-40(%rbp), %rax
100002e63:	48 8d 7d f0 	leaq	-16(%rbp), %rdi
100002e67:	48 89 45 d0 	movq	%rax, -48(%rbp)
100002e6b:	e8 20 00 00 00 	callq	32 <__ZNSt3__1L7forwardINS_9allocatorIcEEEERT_RNS_16remove_referenceIS3_E4typeE>
100002e70:	48 8b 7d d0 	movq	-48(%rbp), %rdi
100002e74:	48 89 45 c8 	movq	%rax, -56(%rbp)
100002e78:	e8 23 00 00 00 	callq	35 <__ZNSt3__122__compressed_pair_elemINS_9allocatorIcEELi1ELb1EEC2ES2_>
100002e7d:	48 83 c4 40 	addq	$64, %rsp
100002e81:	5d 	popq	%rbp
100002e82:	c3 	retq
100002e83:	66 2e 0f 1f 84 00 00 00 00 00 	nopw	%cs:(%rax,%rax)
100002e8d:	0f 1f 00 	nopl	(%rax)
100002e90:	55 	pushq	%rbp
100002e91:	48 89 e5 	movq	%rsp, %rbp
100002e94:	48 89 7d f8 	movq	%rdi, -8(%rbp)
100002e98:	48 8b 45 f8 	movq	-8(%rbp), %rax
100002e9c:	5d 	popq	%rbp
100002e9d:	c3 	retq
100002e9e:	66 90 	nop
100002ea0:	55 	pushq	%rbp
100002ea1:	48 89 e5 	movq	%rsp, %rbp
100002ea4:	48 83 ec 20 	subq	$32, %rsp
100002ea8:	48 89 7d f0 	movq	%rdi, -16(%rbp)
100002eac:	48 8d 7d f8 	leaq	-8(%rbp), %rdi
100002eb0:	e8 db ff ff ff 	callq	-37 <__ZNSt3__1L7forwardINS_9allocatorIcEEEERT_RNS_16remove_referenceIS3_E4typeE>
100002eb5:	48 89 45 e8 	movq	%rax, -24(%rbp)
100002eb9:	48 83 c4 20 	addq	$32, %rsp
100002ebd:	5d 	popq	%rbp
100002ebe:	c3 	retq
100002ebf:	90 	nop
100002ec0:	55 	pushq	%rbp
100002ec1:	48 89 e5 	movq	%rsp, %rbp
100002ec4:	48 83 ec 10 	subq	$16, %rsp
100002ec8:	48 89 7d f8 	movq	%rdi, -8(%rbp)
100002ecc:	48 8b 7d f8 	movq	-8(%rbp), %rdi
100002ed0:	e8 0b 00 00 00 	callq	11 <__ZNSt3__122__compressed_pair_elemINS_12basic_stringIcNS_11char_traitsIcEENS_9allocatorIcEEE5__repELi0ELb0EE5__getEv>
100002ed5:	48 83 c4 10 	addq	$16, %rsp
100002ed9:	5d 	popq	%rbp
100002eda:	c3 	retq
100002edb:	0f 1f 44 00 00 	nopl	(%rax,%rax)
100002ee0:	55 	pushq	%rbp
100002ee1:	48 89 e5 	movq	%rsp, %rbp
100002ee4:	48 89 7d f8 	movq	%rdi, -8(%rbp)
100002ee8:	48 8b 45 f8 	movq	-8(%rbp), %rax
100002eec:	5d 	popq	%rbp
100002eed:	c3 	retq
100002eee:	66 90 	nop
100002ef0:	55 	pushq	%rbp
100002ef1:	48 89 e5 	movq	%rsp, %rbp
100002ef4:	48 83 ec 10 	subq	$16, %rsp
100002ef8:	48 89 7d f8 	movq	%rdi, -8(%rbp)
100002efc:	48 8b 7d f8 	movq	-8(%rbp), %rdi
100002f00:	e8 7b 00 00 00 	callq	123 <__ZNKSt3__117__compressed_pairINS_12basic_stringIcNS_11char_traitsIcEENS_9allocatorIcEEE5__repES5_E5firstEv>
100002f05:	0f b6 08 	movzbl	(%rax), %ecx
100002f08:	89 c8 	movl	%ecx, %eax
100002f0a:	48 83 e0 01 	andq	$1, %rax
100002f0e:	48 83 f8 00 	cmpq	$0, %rax
100002f12:	0f 95 c2 	setne	%dl
100002f15:	80 e2 01 	andb	$1, %dl
100002f18:	0f b6 c2 	movzbl	%dl, %eax
100002f1b:	48 83 c4 10 	addq	$16, %rsp
100002f1f:	5d 	popq	%rbp
100002f20:	c3 	retq
100002f21:	66 2e 0f 1f 84 00 00 00 00 00 	nopw	%cs:(%rax,%rax)
100002f2b:	0f 1f 44 00 00 	nopl	(%rax,%rax)
100002f30:	55 	pushq	%rbp
100002f31:	48 89 e5 	movq	%rsp, %rbp
100002f34:	48 83 ec 10 	subq	$16, %rsp
100002f38:	48 89 7d f8 	movq	%rdi, -8(%rbp)
100002f3c:	48 8b 7d f8 	movq	-8(%rbp), %rdi
100002f40:	e8 3b 00 00 00 	callq	59 <__ZNKSt3__117__compressed_pairINS_12basic_stringIcNS_11char_traitsIcEENS_9allocatorIcEEE5__repES5_E5firstEv>
100002f45:	48 8b 40 08 	movq	8(%rax), %rax
100002f49:	48 83 c4 10 	addq	$16, %rsp
100002f4d:	5d 	popq	%rbp
100002f4e:	c3 	retq
100002f4f:	90 	nop
100002f50:	55 	pushq	%rbp
100002f51:	48 89 e5 	movq	%rsp, %rbp
100002f54:	48 83 ec 10 	subq	$16, %rsp
100002f58:	48 89 7d f8 	movq	%rdi, -8(%rbp)
100002f5c:	48 8b 7d f8 	movq	-8(%rbp), %rdi
100002f60:	e8 1b 00 00 00 	callq	27 <__ZNKSt3__117__compressed_pairINS_12basic_stringIcNS_11char_traitsIcEENS_9allocatorIcEEE5__repES5_E5firstEv>
100002f65:	0f b6 08 	movzbl	(%rax), %ecx
100002f68:	c1 f9 01 	sarl	$1, %ecx
100002f6b:	48 63 c1 	movslq	%ecx, %rax
100002f6e:	48 83 c4 10 	addq	$16, %rsp
100002f72:	5d 	popq	%rbp
100002f73:	c3 	retq
100002f74:	66 2e 0f 1f 84 00 00 00 00 00 	nopw	%cs:(%rax,%rax)
100002f7e:	66 90 	nop
100002f80:	55 	pushq	%rbp
100002f81:	48 89 e5 	movq	%rsp, %rbp
100002f84:	48 83 ec 10 	subq	$16, %rsp
100002f88:	48 89 7d f8 	movq	%rdi, -8(%rbp)
100002f8c:	48 8b 7d f8 	movq	-8(%rbp), %rdi
100002f90:	e8 0b 00 00 00 	callq	11 <__ZNKSt3__122__compressed_pair_elemINS_12basic_stringIcNS_11char_traitsIcEENS_9allocatorIcEEE5__repELi0ELb0EE5__getEv>
100002f95:	48 83 c4 10 	addq	$16, %rsp
100002f99:	5d 	popq	%rbp
100002f9a:	c3 	retq
100002f9b:	0f 1f 44 00 00 	nopl	(%rax,%rax)
100002fa0:	55 	pushq	%rbp
100002fa1:	48 89 e5 	movq	%rsp, %rbp
100002fa4:	48 89 7d f8 	movq	%rdi, -8(%rbp)
100002fa8:	48 8b 45 f8 	movq	-8(%rbp), %rax
100002fac:	5d 	popq	%rbp
100002fad:	c3 	retq
100002fae:	66 90 	nop
100002fb0:	55 	pushq	%rbp
100002fb1:	48 89 e5 	movq	%rsp, %rbp
100002fb4:	48 89 7d f8 	movq	%rdi, -8(%rbp)
100002fb8:	48 8b 45 f8 	movq	-8(%rbp), %rax
100002fbc:	5d 	popq	%rbp
100002fbd:	c3 	retq
100002fbe:	66 90 	nop
100002fc0:	55 	pushq	%rbp
100002fc1:	48 89 e5 	movq	%rsp, %rbp
100002fc4:	48 83 ec 20 	subq	$32, %rsp
100002fc8:	48 89 7d f8 	movq	%rdi, -8(%rbp)
100002fcc:	48 8b 7d f8 	movq	-8(%rbp), %rdi
100002fd0:	48 89 7d f0 	movq	%rdi, -16(%rbp)
100002fd4:	e8 17 ff ff ff 	callq	-233 <__ZNKSt3__112basic_stringIcNS_11char_traitsIcEENS_9allocatorIcEEE9__is_longEv>
100002fd9:	a8 01 	testb	$1, %al
100002fdb:	0f 85 05 00 00 00 	jne	5 <__ZNKSt3__112basic_stringIcNS_11char_traitsIcEENS_9allocatorIcEEE13__get_pointerEv+0x26>
100002fe1:	e9 12 00 00 00 	jmp	18 <__ZNKSt3__112basic_stringIcNS_11char_traitsIcEENS_9allocatorIcEEE13__get_pointerEv+0x38>
100002fe6:	48 8b 7d f0 	movq	-16(%rbp), %rdi
100002fea:	e8 21 00 00 00 	callq	33 <__ZNKSt3__112basic_stringIcNS_11char_traitsIcEENS_9allocatorIcEEE18__get_long_pointerEv>
100002fef:	48 89 45 e8 	movq	%rax, -24(%rbp)
100002ff3:	e9 0d 00 00 00 	jmp	13 <__ZNKSt3__112basic_stringIcNS_11char_traitsIcEENS_9allocatorIcEEE13__get_pointerEv+0x45>
100002ff8:	48 8b 7d f0 	movq	-16(%rbp), %rdi
100002ffc:	e8 2f 00 00 00 	callq	47 <__ZNKSt3__112basic_stringIcNS_11char_traitsIcEENS_9allocatorIcEEE19__get_short_pointerEv>
100003001:	48 89 45 e8 	movq	%rax, -24(%rbp)
100003005:	48 8b 45 e8 	movq	-24(%rbp), %rax
100003009:	48 83 c4 20 	addq	$32, %rsp
10000300d:	5d 	popq	%rbp
10000300e:	c3 	retq
10000300f:	90 	nop
100003010:	55 	pushq	%rbp
100003011:	48 89 e5 	movq	%rsp, %rbp
100003014:	48 83 ec 10 	subq	$16, %rsp
100003018:	48 89 7d f8 	movq	%rdi, -8(%rbp)
10000301c:	48 8b 7d f8 	movq	-8(%rbp), %rdi
100003020:	e8 5b ff ff ff 	callq	-165 <__ZNKSt3__117__compressed_pairINS_12basic_stringIcNS_11char_traitsIcEENS_9allocatorIcEEE5__repES5_E5firstEv>
100003025:	48 8b 40 10 	movq	16(%rax), %rax
100003029:	48 83 c4 10 	addq	$16, %rsp
10000302d:	5d 	popq	%rbp
10000302e:	c3 	retq
10000302f:	90 	nop
100003030:	55 	pushq	%rbp
100003031:	48 89 e5 	movq	%rsp, %rbp
100003034:	48 83 ec 10 	subq	$16, %rsp
100003038:	48 89 7d f8 	movq	%rdi, -8(%rbp)
10000303c:	48 8b 7d f8 	movq	-8(%rbp), %rdi
100003040:	e8 3b ff ff ff 	callq	-197 <__ZNKSt3__117__compressed_pairINS_12basic_stringIcNS_11char_traitsIcEENS_9allocatorIcEEE5__repES5_E5firstEv>
100003045:	48 83 c0 01 	addq	$1, %rax
100003049:	48 89 c7 	movq	%rax, %rdi
10000304c:	e8 0f 00 00 00 	callq	15 <__ZNSt3__114pointer_traitsIPKcE10pointer_toERS1_>
100003051:	48 83 c4 10 	addq	$16, %rsp
100003055:	5d 	popq	%rbp
100003056:	c3 	retq
100003057:	66 0f 1f 84 00 00 00 00 00 	nopw	(%rax,%rax)
100003060:	55 	pushq	%rbp
100003061:	48 89 e5 	movq	%rsp, %rbp
100003064:	48 83 ec 10 	subq	$16, %rsp
100003068:	48 89 7d f8 	movq	%rdi, -8(%rbp)
10000306c:	48 8b 7d f8 	movq	-8(%rbp), %rdi
100003070:	e8 0b 00 00 00 	callq	11 <__ZNSt3__1L9addressofIKcEEPT_RS2_>
100003075:	48 83 c4 10 	addq	$16, %rsp
100003079:	5d 	popq	%rbp
10000307a:	c3 	retq
10000307b:	0f 1f 44 00 00 	nopl	(%rax,%rax)
100003080:	55 	pushq	%rbp
100003081:	48 89 e5 	movq	%rsp, %rbp
100003084:	48 89 7d f8 	movq	%rdi, -8(%rbp)
100003088:	48 8b 45 f8 	movq	-8(%rbp), %rax
10000308c:	5d 	popq	%rbp
10000308d:	c3 	retq
10000308e:	66 90 	nop
100003090:	55 	pushq	%rbp
100003091:	48 89 e5 	movq	%rsp, %rbp
100003094:	48 81 ec a0 00 00 00 	subq	$160, %rsp
10000309b:	48 89 7d f8 	movq	%rdi, -8(%rbp)
10000309f:	48 89 75 f0 	movq	%rsi, -16(%rbp)
1000030a3:	48 89 55 e8 	movq	%rdx, -24(%rbp)
1000030a7:	48 8b 75 f8 	movq	-8(%rbp), %rsi
1000030ab:	48 8d 7d d8 	leaq	-40(%rbp), %rdi
1000030af:	e8 6c 09 00 00 	callq	2412 <dyld_stub_binder+0x100003a20>
1000030b4:	e9 00 00 00 00 	jmp	0 <__ZNSt3__124__put_character_sequenceIcNS_11char_traitsIcEEEERNS_13basic_ostreamIT_T0_EES7_PKS4_m+0x29>
1000030b9:	48 8d 7d d8 	leaq	-40(%rbp), %rdi
1000030bd:	e8 de 01 00 00 	callq	478 <__ZNKSt3__113basic_ostreamIcNS_11char_traitsIcEEE6sentrycvbEv>
1000030c2:	88 45 b7 	movb	%al, -73(%rbp)
1000030c5:	e9 00 00 00 00 	jmp	0 <__ZNSt3__124__put_character_sequenceIcNS_11char_traitsIcEEEERNS_13basic_ostreamIT_T0_EES7_PKS4_m+0x3a>
1000030ca:	8a 45 b7 	movb	-73(%rbp), %al
1000030cd:	a8 01 	testb	$1, %al
1000030cf:	0f 85 05 00 00 00 	jne	5 <__ZNSt3__124__put_character_sequenceIcNS_11char_traitsIcEEEERNS_13basic_ostreamIT_T0_EES7_PKS4_m+0x4a>
1000030d5:	e9 35 01 00 00 	jmp	309 <__ZNSt3__124__put_character_sequenceIcNS_11char_traitsIcEEEERNS_13basic_ostreamIT_T0_EES7_PKS4_m+0x17f>
1000030da:	48 8b 75 f8 	movq	-8(%rbp), %rsi
1000030de:	48 8d 7d b8 	leaq	-72(%rbp), %rdi
1000030e2:	e8 b9 04 00 00 	callq	1209 <__ZNSt3__119ostreambuf_iteratorIcNS_11char_traitsIcEEEC1ERNS_13basic_ostreamIcS2_EE>
1000030e7:	48 8b 75 f0 	movq	-16(%rbp), %rsi
1000030eb:	48 8b 7d f8 	movq	-8(%rbp), %rdi
1000030ef:	48 8b 07 	movq	(%rdi), %rax
1000030f2:	48 8b 40 e8 	movq	-24(%rax), %rax
1000030f6:	48 01 c7 	addq	%rax, %rdi
1000030f9:	48 89 75 a8 	movq	%rsi, -88(%rbp)
1000030fd:	e8 ce 04 00 00 	callq	1230 <__ZNKSt3__18ios_base5flagsEv>
100003102:	89 45 a4 	movl	%eax, -92(%rbp)
100003105:	e9 00 00 00 00 	jmp	0 <__ZNSt3__124__put_character_sequenceIcNS_11char_traitsIcEEEERNS_13basic_ostreamIT_T0_EES7_PKS4_m+0x7a>
10000310a:	8b 45 a4 	movl	-92(%rbp), %eax
10000310d:	25 b0 00 00 00 	andl	$176, %eax
100003112:	83 f8 20 	cmpl	$32, %eax
100003115:	0f 85 11 00 00 00 	jne	17 <__ZNSt3__124__put_character_sequenceIcNS_11char_traitsIcEEEERNS_13basic_ostreamIT_T0_EES7_PKS4_m+0x9c>
10000311b:	48 8b 45 f0 	movq	-16(%rbp), %rax
10000311f:	48 03 45 e8 	addq	-24(%rbp), %rax
100003123:	48 89 45 98 	movq	%rax, -104(%rbp)
100003127:	e9 08 00 00 00 	jmp	8 <__ZNSt3__124__put_character_sequenceIcNS_11char_traitsIcEEEERNS_13basic_ostreamIT_T0_EES7_PKS4_m+0xa4>
10000312c:	48 8b 45 f0 	movq	-16(%rbp), %rax
100003130:	48 89 45 98 	movq	%rax, -104(%rbp)
100003134:	48 8b 45 98 	movq	-104(%rbp), %rax
100003138:	48 8b 4d f0 	movq	-16(%rbp), %rcx
10000313c:	48 8b 55 e8 	movq	-24(%rbp), %rdx
100003140:	48 01 d1 	addq	%rdx, %rcx
100003143:	48 8b 55 f8 	movq	-8(%rbp), %rdx
100003147:	48 8b 32 	movq	(%rdx), %rsi
10000314a:	48 8b 76 e8 	movq	-24(%rsi), %rsi
10000314e:	48 01 f2 	addq	%rsi, %rdx
100003151:	48 89 d7 	movq	%rdx, %rdi
100003154:	48 89 45 90 	movq	%rax, -112(%rbp)
100003158:	48 89 4d 88 	movq	%rcx, -120(%rbp)
10000315c:	48 89 55 80 	movq	%rdx, -128(%rbp)
100003160:	e8 8b 04 00 00 	callq	1163 <__ZNKSt3__19basic_iosIcNS_11char_traitsIcEEE4fillEv>
100003165:	88 85 7f ff ff ff 	movb	%al, -129(%rbp)
10000316b:	e9 00 00 00 00 	jmp	0 <__ZNSt3__124__put_character_sequenceIcNS_11char_traitsIcEEEERNS_13basic_ostreamIT_T0_EES7_PKS4_m+0xe0>
100003170:	48 8b 7d b8 	movq	-72(%rbp), %rdi
100003174:	8a 85 7f ff ff ff 	movb	-129(%rbp), %al
10000317a:	44 0f be c8 	movsbl	%al, %r9d
10000317e:	48 8b 75 a8 	movq	-88(%rbp), %rsi
100003182:	48 8b 55 90 	movq	-112(%rbp), %rdx
100003186:	48 8b 4d 88 	movq	-120(%rbp), %rcx
10000318a:	4c 8b 45 80 	movq	-128(%rbp), %r8
10000318e:	e8 2d 01 00 00 	callq	301 <__ZNSt3__116__pad_and_outputIcNS_11char_traitsIcEEEENS_19ostreambuf_iteratorIT_T0_EES6_PKS4_S8_S8_RNS_8ios_baseES4_>
100003193:	48 89 85 70 ff ff ff 	movq	%rax, -144(%rbp)
10000319a:	e9 00 00 00 00 	jmp	0 <__ZNSt3__124__put_character_sequenceIcNS_11char_traitsIcEEEERNS_13basic_ostreamIT_T0_EES7_PKS4_m+0x10f>
10000319f:	48 8b 85 70 ff ff ff 	movq	-144(%rbp), %rax
1000031a6:	48 89 45 c0 	movq	%rax, -64(%rbp)
1000031aa:	48 8d 7d c0 	leaq	-64(%rbp), %rdi
1000031ae:	e8 ad 04 00 00 	callq	1197 <__ZNKSt3__119ostreambuf_iteratorIcNS_11char_traitsIcEEE6failedEv>
1000031b3:	a8 01 	testb	$1, %al
1000031b5:	0f 85 05 00 00 00 	jne	5 <__ZNSt3__124__put_character_sequenceIcNS_11char_traitsIcEEEERNS_13basic_ostreamIT_T0_EES7_PKS4_m+0x130>
1000031bb:	e9 4a 00 00 00 	jmp	74 <__ZNSt3__124__put_character_sequenceIcNS_11char_traitsIcEEEERNS_13basic_ostreamIT_T0_EES7_PKS4_m+0x17a>
1000031c0:	48 8b 45 f8 	movq	-8(%rbp), %rax
1000031c4:	48 8b 08 	movq	(%rax), %rcx
1000031c7:	48 8b 49 e8 	movq	-24(%rcx), %rcx
1000031cb:	48 01 c8 	addq	%rcx, %rax
1000031ce:	be 05 00 00 00 	movl	$5, %esi
1000031d3:	48 89 c7 	movq	%rax, %rdi
1000031d6:	e8 a5 04 00 00 	callq	1189 <__ZNSt3__19basic_iosIcNS_11char_traitsIcEEE8setstateEj>
1000031db:	e9 00 00 00 00 	jmp	0 <__ZNSt3__124__put_character_sequenceIcNS_11char_traitsIcEEEERNS_13basic_ostreamIT_T0_EES7_PKS4_m+0x150>
1000031e0:	e9 25 00 00 00 	jmp	37 <__ZNSt3__124__put_character_sequenceIcNS_11char_traitsIcEEEERNS_13basic_ostreamIT_T0_EES7_PKS4_m+0x17a>
1000031e5:	89 d1 	movl	%edx, %ecx
1000031e7:	48 89 45 d0 	movq	%rax, -48(%rbp)
1000031eb:	89 4d cc 	movl	%ecx, -52(%rbp)
1000031ee:	e9 34 00 00 00 	jmp	52 <__ZNSt3__124__put_character_sequenceIcNS_11char_traitsIcEEEERNS_13basic_ostreamIT_T0_EES7_PKS4_m+0x197>
1000031f3:	89 d1 	movl	%edx, %ecx
1000031f5:	48 89 45 d0 	movq	%rax, -48(%rbp)
1000031f9:	89 4d cc 	movl	%ecx, -52(%rbp)
1000031fc:	48 8d 7d d8 	leaq	-40(%rbp), %rdi
100003200:	e8 21 08 00 00 	callq	2081 <dyld_stub_binder+0x100003a26>
100003205:	e9 18 00 00 00 	jmp	24 <__ZNSt3__124__put_character_sequenceIcNS_11char_traitsIcEEEERNS_13basic_ostreamIT_T0_EES7_PKS4_m+0x192>
10000320a:	e9 00 00 00 00 	jmp	0 <__ZNSt3__124__put_character_sequenceIcNS_11char_traitsIcEEEERNS_13basic_ostreamIT_T0_EES7_PKS4_m+0x17f>
10000320f:	48 8d 7d d8 	leaq	-40(%rbp), %rdi
100003213:	e8 0e 08 00 00 	callq	2062 <dyld_stub_binder+0x100003a26>
100003218:	e9 00 00 00 00 	jmp	0 <__ZNSt3__124__put_character_sequenceIcNS_11char_traitsIcEEEERNS_13basic_ostreamIT_T0_EES7_PKS4_m+0x18d>
10000321d:	e9 32 00 00 00 	jmp	50 <__ZNSt3__124__put_character_sequenceIcNS_11char_traitsIcEEEERNS_13basic_ostreamIT_T0_EES7_PKS4_m+0x1c4>
100003222:	e9 00 00 00 00 	jmp	0 <__ZNSt3__124__put_character_sequenceIcNS_11char_traitsIcEEEERNS_13basic_ostreamIT_T0_EES7_PKS4_m+0x197>
100003227:	48 8b 7d d0 	movq	-48(%rbp), %rdi
10000322b:	e8 62 08 00 00 	callq	2146 <dyld_stub_binder+0x100003a92>
100003230:	48 8b 7d f8 	movq	-8(%rbp), %rdi
100003234:	48 8b 0f 	movq	(%rdi), %rcx
100003237:	48 8b 49 e8 	movq	-24(%rcx), %rcx
10000323b:	48 01 cf 	addq	%rcx, %rdi
10000323e:	48 89 85 68 ff ff ff 	movq	%rax, -152(%rbp)
100003245:	e8 12 08 00 00 	callq	2066 <dyld_stub_binder+0x100003a5c>
10000324a:	e9 00 00 00 00 	jmp	0 <__ZNSt3__124__put_character_sequenceIcNS_11char_traitsIcEEEERNS_13basic_ostreamIT_T0_EES7_PKS4_m+0x1bf>
10000324f:	e8 4a 08 00 00 	callq	2122 <dyld_stub_binder+0x100003a9e>
100003254:	48 8b 45 f8 	movq	-8(%rbp), %rax
100003258:	48 81 c4 a0 00 00 00 	addq	$160, %rsp
10000325f:	5d 	popq	%rbp
100003260:	c3 	retq
100003261:	89 d1 	movl	%edx, %ecx
100003263:	48 89 45 d0 	movq	%rax, -48(%rbp)
100003267:	89 4d cc 	movl	%ecx, -52(%rbp)
10000326a:	e8 2f 08 00 00 	callq	2095 <dyld_stub_binder+0x100003a9e>
10000326f:	e9 00 00 00 00 	jmp	0 <__ZNSt3__124__put_character_sequenceIcNS_11char_traitsIcEEEERNS_13basic_ostreamIT_T0_EES7_PKS4_m+0x1e4>
100003274:	e9 00 00 00 00 	jmp	0 <__ZNSt3__124__put_character_sequenceIcNS_11char_traitsIcEEEERNS_13basic_ostreamIT_T0_EES7_PKS4_m+0x1e9>
100003279:	48 8b 7d d0 	movq	-48(%rbp), %rdi
10000327d:	e8 32 07 00 00 	callq	1842 <dyld_stub_binder+0x1000039b4>
100003282:	0f 0b 	ud2
100003284:	48 89 c7 	movq	%rax, %rdi
100003287:	48 89 95 60 ff ff ff 	movq	%rdx, -160(%rbp)
10000328e:	e8 5d db ff ff 	callq	-9379 <___clang_call_terminate>
100003293:	66 2e 0f 1f 84 00 00 00 00 00 	nopw	%cs:(%rax,%rax)
10000329d:	0f 1f 00 	nopl	(%rax)
1000032a0:	55 	pushq	%rbp
1000032a1:	48 89 e5 	movq	%rsp, %rbp
1000032a4:	48 89 7d f8 	movq	%rdi, -8(%rbp)
1000032a8:	48 8b 7d f8 	movq	-8(%rbp), %rdi
1000032ac:	8a 07 	movb	(%rdi), %al
1000032ae:	24 01 	andb	$1, %al
1000032b0:	0f b6 c0 	movzbl	%al, %eax
1000032b3:	5d 	popq	%rbp
1000032b4:	c3 	retq
1000032b5:	66 2e 0f 1f 84 00 00 00 00 00 	nopw	%cs:(%rax,%rax)
1000032bf:	90 	nop
1000032c0:	55 	pushq	%rbp
1000032c1:	48 89 e5 	movq	%rsp, %rbp
1000032c4:	48 81 ec f0 00 00 00 	subq	$240, %rsp
1000032cb:	44 88 c8 	movb	%r9b, %al
1000032ce:	48 89 7d f0 	movq	%rdi, -16(%rbp)
1000032d2:	48 89 75 e8 	movq	%rsi, -24(%rbp)
1000032d6:	48 89 55 e0 	movq	%rdx, -32(%rbp)
1000032da:	48 89 4d d8 	movq	%rcx, -40(%rbp)
1000032de:	4c 89 45 d0 	movq	%r8, -48(%rbp)
1000032e2:	88 45 cf 	movb	%al, -49(%rbp)
1000032e5:	48 8b 4d f0 	movq	-16(%rbp), %rcx
1000032e9:	48 89 8d 58 ff ff ff 	movq	%rcx, -168(%rbp)
1000032f0:	e8 8b df ff ff 	callq	-8309 <__ZNSt3__1L15__get_nullptr_tEv>
1000032f5:	48 89 45 c0 	movq	%rax, -64(%rbp)
1000032f9:	48 8d 7d c0 	leaq	-64(%rbp), %rdi
1000032fd:	e8 ae 03 00 00 	callq	942 <__ZNKSt3__19nullptr_tcvPT_INS_15basic_streambufIcNS_11char_traitsIcEEEEEEv>
100003302:	48 8b 8d 58 ff ff ff 	movq	-168(%rbp), %rcx
100003309:	48 39 c1 	cmpq	%rax, %rcx
10000330c:	0f 85 0d 00 00 00 	jne	13 <__ZNSt3__116__pad_and_outputIcNS_11char_traitsIcEEEENS_19ostreambuf_iteratorIT_T0_EES6_PKS4_S8_S8_RNS_8ios_baseES4_+0x5f>
100003312:	48 8b 45 f0 	movq	-16(%rbp), %rax
100003316:	48 89 45 f8 	movq	%rax, -8(%rbp)
10000331a:	e9 55 02 00 00 	jmp	597 <__ZNSt3__116__pad_and_outputIcNS_11char_traitsIcEEEENS_19ostreambuf_iteratorIT_T0_EES6_PKS4_S8_S8_RNS_8ios_baseES4_+0x2b4>
10000331f:	48 8b 45 d8 	movq	-40(%rbp), %rax
100003323:	48 8b 4d e8 	movq	-24(%rbp), %rcx
100003327:	48 29 c8 	subq	%rcx, %rax
10000332a:	48 89 45 b8 	movq	%rax, -72(%rbp)
10000332e:	48 8b 7d d0 	movq	-48(%rbp), %rdi
100003332:	e8 89 03 00 00 	callq	905 <__ZNKSt3__18ios_base5widthEv>
100003337:	48 89 45 b0 	movq	%rax, -80(%rbp)
10000333b:	48 8b 45 b0 	movq	-80(%rbp), %rax
10000333f:	48 3b 45 b8 	cmpq	-72(%rbp), %rax
100003343:	0f 8e 14 00 00 00 	jle	20 <__ZNSt3__116__pad_and_outputIcNS_11char_traitsIcEEEENS_19ostreambuf_iteratorIT_T0_EES6_PKS4_S8_S8_RNS_8ios_baseES4_+0x9d>
100003349:	48 8b 45 b8 	movq	-72(%rbp), %rax
10000334d:	48 8b 4d b0 	movq	-80(%rbp), %rcx
100003351:	48 29 c1 	subq	%rax, %rcx
100003354:	48 89 4d b0 	movq	%rcx, -80(%rbp)
100003358:	e9 08 00 00 00 	jmp	8 <__ZNSt3__116__pad_and_outputIcNS_11char_traitsIcEEEENS_19ostreambuf_iteratorIT_T0_EES6_PKS4_S8_S8_RNS_8ios_baseES4_+0xa5>
10000335d:	48 c7 45 b0 00 00 00 00 	movq	$0, -80(%rbp)
100003365:	48 8b 45 e0 	movq	-32(%rbp), %rax
100003369:	48 8b 4d e8 	movq	-24(%rbp), %rcx
10000336d:	48 29 c8 	subq	%rcx, %rax
100003370:	48 89 45 a8 	movq	%rax, -88(%rbp)
100003374:	48 83 7d a8 00 	cmpq	$0, -88(%rbp)
100003379:	0f 8e 43 00 00 00 	jle	67 <__ZNSt3__116__pad_and_outputIcNS_11char_traitsIcEEEENS_19ostreambuf_iteratorIT_T0_EES6_PKS4_S8_S8_RNS_8ios_baseES4_+0x102>
10000337f:	48 8b 7d f0 	movq	-16(%rbp), %rdi
100003383:	48 8b 75 e8 	movq	-24(%rbp), %rsi
100003387:	48 8b 55 a8 	movq	-88(%rbp), %rdx
10000338b:	e8 50 03 00 00 	callq	848 <__ZNSt3__115basic_streambufIcNS_11char_traitsIcEEE5sputnEPKcl>
100003390:	48 3b 45 a8 	cmpq	-88(%rbp), %rax
100003394:	0f 84 23 00 00 00 	je	35 <__ZNSt3__116__pad_and_outputIcNS_11char_traitsIcEEEENS_19ostreambuf_iteratorIT_T0_EES6_PKS4_S8_S8_RNS_8ios_baseES4_+0xfd>
10000339a:	e8 e1 de ff ff 	callq	-8479 <__ZNSt3__1L15__get_nullptr_tEv>
10000339f:	48 89 45 a0 	movq	%rax, -96(%rbp)
1000033a3:	48 8d 7d a0 	leaq	-96(%rbp), %rdi
1000033a7:	e8 04 03 00 00 	callq	772 <__ZNKSt3__19nullptr_tcvPT_INS_15basic_streambufIcNS_11char_traitsIcEEEEEEv>
1000033ac:	48 89 45 f0 	movq	%rax, -16(%rbp)
1000033b0:	48 8b 45 f0 	movq	-16(%rbp), %rax
1000033b4:	48 89 45 f8 	movq	%rax, -8(%rbp)
1000033b8:	e9 b7 01 00 00 	jmp	439 <__ZNSt3__116__pad_and_outputIcNS_11char_traitsIcEEEENS_19ostreambuf_iteratorIT_T0_EES6_PKS4_S8_S8_RNS_8ios_baseES4_+0x2b4>
1000033bd:	e9 00 00 00 00 	jmp	0 <__ZNSt3__116__pad_and_outputIcNS_11char_traitsIcEEEENS_19ostreambuf_iteratorIT_T0_EES6_PKS4_S8_S8_RNS_8ios_baseES4_+0x102>
1000033c2:	48 83 7d b0 00 	cmpq	$0, -80(%rbp)
1000033c7:	0f 8e 28 01 00 00 	jle	296 <__ZNSt3__116__pad_and_outputIcNS_11char_traitsIcEEEENS_19ostreambuf_iteratorIT_T0_EES6_PKS4_S8_S8_RNS_8ios_baseES4_+0x235>
1000033cd:	48 8b 75 b0 	movq	-80(%rbp), %rsi
1000033d1:	0f be 55 cf 	movsbl	-49(%rbp), %edx
1000033d5:	48 8d 45 88 	leaq	-120(%rbp), %rax
1000033d9:	48 89 c7 	movq	%rax, %rdi
1000033dc:	48 89 85 50 ff ff ff 	movq	%rax, -176(%rbp)
1000033e3:	e8 38 03 00 00 	callq	824 <__ZNSt3__112basic_stringIcNS_11char_traitsIcEENS_9allocatorIcEEEC1Emc>
1000033e8:	48 8b 7d f0 	movq	-16(%rbp), %rdi
1000033ec:	48 8b 85 50 ff ff ff 	movq	-176(%rbp), %rax
1000033f3:	48 89 bd 48 ff ff ff 	movq	%rdi, -184(%rbp)
1000033fa:	48 89 c7 	movq	%rax, %rdi
1000033fd:	e8 0e f9 ff ff 	callq	-1778 <__ZNKSt3__112basic_stringIcNS_11char_traitsIcEENS_9allocatorIcEEE4dataEv>
100003402:	48 8b 55 b0 	movq	-80(%rbp), %rdx
100003406:	48 8b bd 48 ff ff ff 	movq	-184(%rbp), %rdi
10000340d:	48 89 c6 	movq	%rax, %rsi
100003410:	e8 cb 02 00 00 	callq	715 <__ZNSt3__115basic_streambufIcNS_11char_traitsIcEEE5sputnEPKcl>
100003415:	48 89 85 40 ff ff ff 	movq	%rax, -192(%rbp)
10000341c:	e9 00 00 00 00 	jmp	0 <__ZNSt3__116__pad_and_outputIcNS_11char_traitsIcEEEENS_19ostreambuf_iteratorIT_T0_EES6_PKS4_S8_S8_RNS_8ios_baseES4_+0x161>
100003421:	48 8b 85 40 ff ff ff 	movq	-192(%rbp), %rax
100003428:	48 3b 45 b0 	cmpq	-80(%rbp), %rax
10000342c:	0f 84 73 00 00 00 	je	115 <__ZNSt3__116__pad_and_outputIcNS_11char_traitsIcEEEENS_19ostreambuf_iteratorIT_T0_EES6_PKS4_S8_S8_RNS_8ios_baseES4_+0x1e5>
100003432:	e8 49 de ff ff 	callq	-8631 <__ZNSt3__1L15__get_nullptr_tEv>
100003437:	48 89 85 38 ff ff ff 	movq	%rax, -200(%rbp)
10000343e:	e9 00 00 00 00 	jmp	0 <__ZNSt3__116__pad_and_outputIcNS_11char_traitsIcEEEENS_19ostreambuf_iteratorIT_T0_EES6_PKS4_S8_S8_RNS_8ios_baseES4_+0x183>
100003443:	48 8b 85 38 ff ff ff 	movq	-200(%rbp), %rax
10000344a:	48 89 85 70 ff ff ff 	movq	%rax, -144(%rbp)
100003451:	48 8d bd 70 ff ff ff 	leaq	-144(%rbp), %rdi
100003458:	e8 53 02 00 00 	callq	595 <__ZNKSt3__19nullptr_tcvPT_INS_15basic_streambufIcNS_11char_traitsIcEEEEEEv>
10000345d:	48 89 85 30 ff ff ff 	movq	%rax, -208(%rbp)
100003464:	e9 00 00 00 00 	jmp	0 <__ZNSt3__116__pad_and_outputIcNS_11char_traitsIcEEEENS_19ostreambuf_iteratorIT_T0_EES6_PKS4_S8_S8_RNS_8ios_baseES4_+0x1a9>
100003469:	48 8b 85 30 ff ff ff 	movq	-208(%rbp), %rax
100003470:	48 89 45 f0 	movq	%rax, -16(%rbp)
100003474:	48 8b 4d f0 	movq	-16(%rbp), %rcx
100003478:	48 89 4d f8 	movq	%rcx, -8(%rbp)
10000347c:	c7 85 6c ff ff ff 01 00 00 00 	movl	$1, -148(%rbp)
100003486:	e9 24 00 00 00 	jmp	36 <__ZNSt3__116__pad_and_outputIcNS_11char_traitsIcEEEENS_19ostreambuf_iteratorIT_T0_EES6_PKS4_S8_S8_RNS_8ios_baseES4_+0x1ef>
10000348b:	89 d1 	movl	%edx, %ecx
10000348d:	48 89 45 80 	movq	%rax, -128(%rbp)
100003491:	89 8d 7c ff ff ff 	movl	%ecx, -132(%rbp)
100003497:	48 8d 7d 88 	leaq	-120(%rbp), %rdi
10000349b:	e8 68 05 00 00 	callq	1384 <dyld_stub_binder+0x100003a08>
1000034a0:	e9 4b 00 00 00 	jmp	75 <__ZNSt3__116__pad_and_outputIcNS_11char_traitsIcEEEENS_19ostreambuf_iteratorIT_T0_EES6_PKS4_S8_S8_RNS_8ios_baseES4_+0x230>
1000034a5:	c7 85 6c ff ff ff 00 00 00 00 	movl	$0, -148(%rbp)
1000034af:	48 8d 7d 88 	leaq	-120(%rbp), %rdi
1000034b3:	e8 50 05 00 00 	callq	1360 <dyld_stub_binder+0x100003a08>
1000034b8:	8b 85 6c ff ff ff 	movl	-148(%rbp), %eax
1000034be:	85 c0 	testl	%eax, %eax
1000034c0:	89 85 2c ff ff ff 	movl	%eax, -212(%rbp)
1000034c6:	0f 84 1f 00 00 00 	je	31 <__ZNSt3__116__pad_and_outputIcNS_11char_traitsIcEEEENS_19ostreambuf_iteratorIT_T0_EES6_PKS4_S8_S8_RNS_8ios_baseES4_+0x22b>
1000034cc:	e9 00 00 00 00 	jmp	0 <__ZNSt3__116__pad_and_outputIcNS_11char_traitsIcEEEENS_19ostreambuf_iteratorIT_T0_EES6_PKS4_S8_S8_RNS_8ios_baseES4_+0x211>
1000034d1:	8b 85 2c ff ff ff 	movl	-212(%rbp), %eax
1000034d7:	83 e8 01 	subl	$1, %eax
1000034da:	89 85 28 ff ff ff 	movl	%eax, -216(%rbp)
1000034e0:	0f 84 8e 00 00 00 	je	142 <__ZNSt3__116__pad_and_outputIcNS_11char_traitsIcEEEENS_19ostreambuf_iteratorIT_T0_EES6_PKS4_S8_S8_RNS_8ios_baseES4_+0x2b4>
1000034e6:	e9 b0 00 00 00 	jmp	176 <__ZNSt3__116__pad_and_outputIcNS_11char_traitsIcEEEENS_19ostreambuf_iteratorIT_T0_EES6_PKS4_S8_S8_RNS_8ios_baseES4_+0x2db>
1000034eb:	e9 05 00 00 00 	jmp	5 <__ZNSt3__116__pad_and_outputIcNS_11char_traitsIcEEEENS_19ostreambuf_iteratorIT_T0_EES6_PKS4_S8_S8_RNS_8ios_baseES4_+0x235>
1000034f0:	e9 8c 00 00 00 	jmp	140 <__ZNSt3__116__pad_and_outputIcNS_11char_traitsIcEEEENS_19ostreambuf_iteratorIT_T0_EES6_PKS4_S8_S8_RNS_8ios_baseES4_+0x2c1>
1000034f5:	48 8b 45 d8 	movq	-40(%rbp), %rax
1000034f9:	48 8b 4d e0 	movq	-32(%rbp), %rcx
1000034fd:	48 29 c8 	subq	%rcx, %rax
100003500:	48 89 45 a8 	movq	%rax, -88(%rbp)
100003504:	48 83 7d a8 00 	cmpq	$0, -88(%rbp)
100003509:	0f 8e 49 00 00 00 	jle	73 <__ZNSt3__116__pad_and_outputIcNS_11char_traitsIcEEEENS_19ostreambuf_iteratorIT_T0_EES6_PKS4_S8_S8_RNS_8ios_baseES4_+0x298>
10000350f:	48 8b 7d f0 	movq	-16(%rbp), %rdi
100003513:	48 8b 75 e0 	movq	-32(%rbp), %rsi
100003517:	48 8b 55 a8 	movq	-88(%rbp), %rdx
10000351b:	e8 c0 01 00 00 	callq	448 <__ZNSt3__115basic_streambufIcNS_11char_traitsIcEEE5sputnEPKcl>
100003520:	48 3b 45 a8 	cmpq	-88(%rbp), %rax
100003524:	0f 84 29 00 00 00 	je	41 <__ZNSt3__116__pad_and_outputIcNS_11char_traitsIcEEEENS_19ostreambuf_iteratorIT_T0_EES6_PKS4_S8_S8_RNS_8ios_baseES4_+0x293>
10000352a:	e8 51 dd ff ff 	callq	-8879 <__ZNSt3__1L15__get_nullptr_tEv>
10000352f:	48 89 85 60 ff ff ff 	movq	%rax, -160(%rbp)
100003536:	48 8d bd 60 ff ff ff 	leaq	-160(%rbp), %rdi
10000353d:	e8 6e 01 00 00 	callq	366 <__ZNKSt3__19nullptr_tcvPT_INS_15basic_streambufIcNS_11char_traitsIcEEEEEEv>
100003542:	48 89 45 f0 	movq	%rax, -16(%rbp)
100003546:	48 8b 45 f0 	movq	-16(%rbp), %rax
10000354a:	48 89 45 f8 	movq	%rax, -8(%rbp)
10000354e:	e9 21 00 00 00 	jmp	33 <__ZNSt3__116__pad_and_outputIcNS_11char_traitsIcEEEENS_19ostreambuf_iteratorIT_T0_EES6_PKS4_S8_S8_RNS_8ios_baseES4_+0x2b4>
100003553:	e9 00 00 00 00 	jmp	0 <__ZNSt3__116__pad_and_outputIcNS_11char_traitsIcEEEENS_19ostreambuf_iteratorIT_T0_EES6_PKS4_S8_S8_RNS_8ios_baseES4_+0x298>
100003558:	31 c0 	xorl	%eax, %eax
10000355a:	89 c6 	movl	%eax, %esi
10000355c:	48 8b 7d d0 	movq	-48(%rbp), %rdi
100003560:	e8 eb 01 00 00 	callq	491 <__ZNSt3__18ios_base5widthEl>
100003565:	48 8b 75 f0 	movq	-16(%rbp), %rsi
100003569:	48 89 75 f8 	movq	%rsi, -8(%rbp)
10000356d:	48 89 85 20 ff ff ff 	movq	%rax, -224(%rbp)
100003574:	48 8b 45 f8 	movq	-8(%rbp), %rax
100003578:	48 81 c4 f0 00 00 00 	addq	$240, %rsp
10000357f:	5d 	popq	%rbp
100003580:	c3 	retq
100003581:	48 8b 7d 80 	movq	-128(%rbp), %rdi
100003585:	e8 2a 04 00 00 	callq	1066 <dyld_stub_binder+0x1000039b4>
10000358a:	0f 0b 	ud2
10000358c:	48 89 c7 	movq	%rax, %rdi
10000358f:	48 89 95 18 ff ff ff 	movq	%rdx, -232(%rbp)
100003596:	e8 55 d8 ff ff 	callq	-10155 <___clang_call_terminate>
10000359b:	0f 0b 	ud2
10000359d:	0f 1f 00 	nopl	(%rax)
1000035a0:	55 	pushq	%rbp
1000035a1:	48 89 e5 	movq	%rsp, %rbp
1000035a4:	48 83 ec 10 	subq	$16, %rsp
1000035a8:	48 89 7d f8 	movq	%rdi, -8(%rbp)
1000035ac:	48 89 75 f0 	movq	%rsi, -16(%rbp)
1000035b0:	48 8b 7d f8 	movq	-8(%rbp), %rdi
1000035b4:	48 8b 75 f0 	movq	-16(%rbp), %rsi
1000035b8:	e8 03 02 00 00 	callq	515 <__ZNSt3__119ostreambuf_iteratorIcNS_11char_traitsIcEEEC2ERNS_13basic_ostreamIcS2_EE>
1000035bd:	48 83 c4 10 	addq	$16, %rsp
1000035c1:	5d 	popq	%rbp
1000035c2:	c3 	retq
1000035c3:	66 2e 0f 1f 84 00 00 00 00 00 	nopw	%cs:(%rax,%rax)
1000035cd:	0f 1f 00 	nopl	(%rax)
1000035d0:	55 	pushq	%rbp
1000035d1:	48 89 e5 	movq	%rsp, %rbp
1000035d4:	48 89 7d f8 	movq	%rdi, -8(%rbp)
1000035d8:	48 8b 7d f8 	movq	-8(%rbp), %rdi
1000035dc:	8b 47 08 	movl	8(%rdi), %eax
1000035df:	5d 	popq	%rbp
1000035e0:	c3 	retq
1000035e1:	66 2e 0f 1f 84 00 00 00 00 00 	nopw	%cs:(%rax,%rax)
1000035eb:	0f 1f 44 00 00 	nopl	(%rax,%rax)
1000035f0:	55 	pushq	%rbp
1000035f1:	48 89 e5 	movq	%rsp, %rbp
1000035f4:	48 83 ec 10 	subq	$16, %rsp
1000035f8:	48 89 7d f8 	movq	%rdi, -8(%rbp)
1000035fc:	48 8b 7d f8 	movq	-8(%rbp), %rdi
100003600:	48 89 7d f0 	movq	%rdi, -16(%rbp)
100003604:	e8 d5 03 00 00 	callq	981 <dyld_stub_binder+0x1000039de>
100003609:	48 8b 7d f0 	movq	-16(%rbp), %rdi
10000360d:	8b b7 90 00 00 00 	movl	144(%rdi), %esi
100003613:	89 c7 	movl	%eax, %edi
100003615:	e8 be 03 00 00 	callq	958 <dyld_stub_binder+0x1000039d8>
10000361a:	a8 01 	testb	$1, %al
10000361c:	0f 85 05 00 00 00 	jne	5 <__ZNKSt3__19basic_iosIcNS_11char_traitsIcEEE4fillEv+0x37>
100003622:	e9 1b 00 00 00 	jmp	27 <__ZNKSt3__19basic_iosIcNS_11char_traitsIcEEE4fillEv+0x52>
100003627:	48 8b 7d f0 	movq	-16(%rbp), %rdi
10000362b:	be 20 00 00 00 	movl	$32, %esi
100003630:	e8 5b 02 00 00 	callq	603 <__ZNKSt3__19basic_iosIcNS_11char_traitsIcEEE5widenEc>
100003635:	0f be f0 	movsbl	%al, %esi
100003638:	48 8b 7d f0 	movq	-16(%rbp), %rdi
10000363c:	89 b7 90 00 00 00 	movl	%esi, 144(%rdi)
100003642:	48 8b 45 f0 	movq	-16(%rbp), %rax
100003646:	8b 88 90 00 00 00 	movl	144(%rax), %ecx
10000364c:	88 ca 	movb	%cl, %dl
10000364e:	0f be ca 	movsbl	%dl, %ecx
100003651:	89 c8 	movl	%ecx, %eax
100003653:	48 83 c4 10 	addq	$16, %rsp
100003657:	5d 	popq	%rbp
100003658:	c3 	retq
100003659:	0f 1f 80 00 00 00 00 	nopl	(%rax)
100003660:	55 	pushq	%rbp
100003661:	48 89 e5 	movq	%rsp, %rbp
100003664:	48 89 7d f8 	movq	%rdi, -8(%rbp)
100003668:	48 8b 7d f8 	movq	-8(%rbp), %rdi
10000366c:	48 83 3f 00 	cmpq	$0, (%rdi)
100003670:	0f 94 c0 	sete	%al
100003673:	24 01 	andb	$1, %al
100003675:	0f b6 c0 	movzbl	%al, %eax
100003678:	5d 	popq	%rbp
100003679:	c3 	retq
10000367a:	66 0f 1f 44 00 00 	nopw	(%rax,%rax)
100003680:	55 	pushq	%rbp
100003681:	48 89 e5 	movq	%rsp, %rbp
100003684:	48 83 ec 10 	subq	$16, %rsp
100003688:	48 89 7d f8 	movq	%rdi, -8(%rbp)
10000368c:	89 75 f4 	movl	%esi, -12(%rbp)
10000368f:	48 8b 7d f8 	movq	-8(%rbp), %rdi
100003693:	8b 75 f4 	movl	-12(%rbp), %esi
100003696:	e8 f5 02 00 00 	callq	757 <__ZNSt3__18ios_base8setstateEj>
10000369b:	48 83 c4 10 	addq	$16, %rsp
10000369f:	5d 	popq	%rbp
1000036a0:	c3 	retq
1000036a1:	66 2e 0f 1f 84 00 00 00 00 00 	nopw	%cs:(%rax,%rax)
1000036ab:	0f 1f 44 00 00 	nopl	(%rax,%rax)
1000036b0:	55 	pushq	%rbp
1000036b1:	48 89 e5 	movq	%rsp, %rbp
1000036b4:	31 c0 	xorl	%eax, %eax
1000036b6:	48 89 7d f8 	movq	%rdi, -8(%rbp)
1000036ba:	5d 	popq	%rbp
1000036bb:	c3 	retq
1000036bc:	0f 1f 40 00 	nopl	(%rax)
1000036c0:	55 	pushq	%rbp
1000036c1:	48 89 e5 	movq	%rsp, %rbp
1000036c4:	48 89 7d f8 	movq	%rdi, -8(%rbp)
1000036c8:	48 8b 7d f8 	movq	-8(%rbp), %rdi
1000036cc:	48 8b 47 18 	movq	24(%rdi), %rax
1000036d0:	5d 	popq	%rbp
1000036d1:	c3 	retq
1000036d2:	66 2e 0f 1f 84 00 00 00 00 00 	nopw	%cs:(%rax,%rax)
1000036dc:	0f 1f 40 00 	nopl	(%rax)
1000036e0:	55 	pushq	%rbp
1000036e1:	48 89 e5 	movq	%rsp, %rbp
1000036e4:	48 83 ec 20 	subq	$32, %rsp
1000036e8:	48 89 7d f8 	movq	%rdi, -8(%rbp)
1000036ec:	48 89 75 f0 	movq	%rsi, -16(%rbp)
1000036f0:	48 89 55 e8 	movq	%rdx, -24(%rbp)
1000036f4:	48 8b 55 f8 	movq	-8(%rbp), %rdx
1000036f8:	48 8b 75 f0 	movq	-16(%rbp), %rsi
1000036fc:	48 8b 7d e8 	movq	-24(%rbp), %rdi
100003700:	48 8b 02 	movq	(%rdx), %rax
100003703:	48 89 7d e0 	movq	%rdi, -32(%rbp)
100003707:	48 89 d7 	movq	%rdx, %rdi
10000370a:	48 8b 55 e0 	movq	-32(%rbp), %rdx
10000370e:	ff 50 60 	callq	*96(%rax)
100003711:	48 83 c4 20 	addq	$32, %rsp
100003715:	5d 	popq	%rbp
100003716:	c3 	retq
100003717:	66 0f 1f 84 00 00 00 00 00 	nopw	(%rax,%rax)
100003720:	55 	pushq	%rbp
100003721:	48 89 e5 	movq	%rsp, %rbp
100003724:	48 83 ec 20 	subq	$32, %rsp
100003728:	88 d0 	movb	%dl, %al
10000372a:	48 89 7d f8 	movq	%rdi, -8(%rbp)
10000372e:	48 89 75 f0 	movq	%rsi, -16(%rbp)
100003732:	88 45 ef 	movb	%al, -17(%rbp)
100003735:	48 8b 7d f8 	movq	-8(%rbp), %rdi
100003739:	48 8b 75 f0 	movq	-16(%rbp), %rsi
10000373d:	0f be 55 ef 	movsbl	-17(%rbp), %edx
100003741:	e8 3a 00 00 00 	callq	58 <__ZNSt3__112basic_stringIcNS_11char_traitsIcEENS_9allocatorIcEEEC2Emc>
100003746:	48 83 c4 20 	addq	$32, %rsp
10000374a:	5d 	popq	%rbp
10000374b:	c3 	retq
10000374c:	0f 1f 40 00 	nopl	(%rax)
100003750:	55 	pushq	%rbp
100003751:	48 89 e5 	movq	%rsp, %rbp
100003754:	48 89 7d f8 	movq	%rdi, -8(%rbp)
100003758:	48 89 75 f0 	movq	%rsi, -16(%rbp)
10000375c:	48 8b 75 f8 	movq	-8(%rbp), %rsi
100003760:	48 8b 7e 18 	movq	24(%rsi), %rdi
100003764:	48 89 7d e8 	movq	%rdi, -24(%rbp)
100003768:	48 8b 7d f0 	movq	-16(%rbp), %rdi
10000376c:	48 89 7e 18 	movq	%rdi, 24(%rsi)
100003770:	48 8b 45 e8 	movq	-24(%rbp), %rax
100003774:	5d 	popq	%rbp
100003775:	c3 	retq
100003776:	66 2e 0f 1f 84 00 00 00 00 00 	nopw	%cs:(%rax,%rax)
100003780:	55 	pushq	%rbp
100003781:	48 89 e5 	movq	%rsp, %rbp
100003784:	48 83 ec 20 	subq	$32, %rsp
100003788:	88 d0 	movb	%dl, %al
10000378a:	48 89 7d f8 	movq	%rdi, -8(%rbp)
10000378e:	48 89 75 f0 	movq	%rsi, -16(%rbp)
100003792:	88 45 ef 	movb	%al, -17(%rbp)
100003795:	48 8b 75 f8 	movq	-8(%rbp), %rsi
100003799:	48 89 f7 	movq	%rsi, %rdi
10000379c:	48 89 75 e0 	movq	%rsi, -32(%rbp)
1000037a0:	e8 1b f0 ff ff 	callq	-4069 <__ZNSt3__117__compressed_pairINS_12basic_stringIcNS_11char_traitsIcEENS_9allocatorIcEEE5__repES5_EC1Ev>
1000037a5:	48 8b 75 f0 	movq	-16(%rbp), %rsi
1000037a9:	48 8b 7d e0 	movq	-32(%rbp), %rdi
1000037ad:	0f be 55 ef 	movsbl	-17(%rbp), %edx
1000037b1:	e8 40 02 00 00 	callq	576 <dyld_stub_binder+0x1000039f6>
1000037b6:	48 83 c4 20 	addq	$32, %rsp
1000037ba:	5d 	popq	%rbp
1000037bb:	c3 	retq
1000037bc:	0f 1f 40 00 	nopl	(%rax)
1000037c0:	55 	pushq	%rbp
1000037c1:	48 89 e5 	movq	%rsp, %rbp
1000037c4:	48 83 ec 30 	subq	$48, %rsp
1000037c8:	48 89 7d f8 	movq	%rdi, -8(%rbp)
1000037cc:	48 89 75 f0 	movq	%rsi, -16(%rbp)
1000037d0:	48 8b 75 f8 	movq	-8(%rbp), %rsi
1000037d4:	48 8b 7d f0 	movq	-16(%rbp), %rdi
1000037d8:	48 8b 07 	movq	(%rdi), %rax
1000037db:	48 8b 40 e8 	movq	-24(%rax), %rax
1000037df:	48 01 c7 	addq	%rax, %rdi
1000037e2:	48 89 75 d8 	movq	%rsi, -40(%rbp)
1000037e6:	e8 35 00 00 00 	callq	53 <__ZNKSt3__19basic_iosIcNS_11char_traitsIcEEE5rdbufEv>
1000037eb:	48 89 45 d0 	movq	%rax, -48(%rbp)
1000037ef:	e9 00 00 00 00 	jmp	0 <__ZNSt3__119ostreambuf_iteratorIcNS_11char_traitsIcEEEC2ERNS_13basic_ostreamIcS2_EE+0x34>
1000037f4:	48 8b 45 d8 	movq	-40(%rbp), %rax
1000037f8:	48 8b 4d d0 	movq	-48(%rbp), %rcx
1000037fc:	48 89 08 	movq	%rcx, (%rax)
1000037ff:	48 83 c4 30 	addq	$48, %rsp
100003803:	5d 	popq	%rbp
100003804:	c3 	retq
100003805:	89 d1 	movl	%edx, %ecx
100003807:	48 89 45 e8 	movq	%rax, -24(%rbp)
10000380b:	89 4d e4 	movl	%ecx, -28(%rbp)
10000380e:	48 8b 7d e8 	movq	-24(%rbp), %rdi
100003812:	e8 81 02 00 00 	callq	641 <dyld_stub_binder+0x100003a98>
100003817:	66 0f 1f 84 00 00 00 00 00 	nopw	(%rax,%rax)
100003820:	55 	pushq	%rbp
100003821:	48 89 e5 	movq	%rsp, %rbp
100003824:	48 83 ec 10 	subq	$16, %rsp
100003828:	48 89 7d f8 	movq	%rdi, -8(%rbp)
10000382c:	48 8b 7d f8 	movq	-8(%rbp), %rdi
100003830:	e8 0b 00 00 00 	callq	11 <__ZNKSt3__18ios_base5rdbufEv>
100003835:	48 83 c4 10 	addq	$16, %rsp
100003839:	5d 	popq	%rbp
10000383a:	c3 	retq
10000383b:	0f 1f 44 00 00 	nopl	(%rax,%rax)
100003840:	55 	pushq	%rbp
100003841:	48 89 e5 	movq	%rsp, %rbp
100003844:	48 89 7d f8 	movq	%rdi, -8(%rbp)
100003848:	48 8b 7d f8 	movq	-8(%rbp), %rdi
10000384c:	48 8b 47 28 	movq	40(%rdi), %rax
100003850:	5d 	popq	%rbp
100003851:	c3 	retq
100003852:	66 2e 0f 1f 84 00 00 00 00 00 	nopw	%cs:(%rax,%rax)
10000385c:	0f 1f 40 00 	nopl	(%rax)
100003860:	55 	pushq	%rbp
100003861:	48 89 e5 	movq	%rsp, %rbp
100003864:	89 7d fc 	movl	%edi, -4(%rbp)
100003867:	89 75 f8 	movl	%esi, -8(%rbp)
10000386a:	8b 75 fc 	movl	-4(%rbp), %esi
10000386d:	3b 75 f8 	cmpl	-8(%rbp), %esi
100003870:	0f 94 c0 	sete	%al
100003873:	24 01 	andb	$1, %al
100003875:	0f b6 c0 	movzbl	%al, %eax
100003878:	5d 	popq	%rbp
100003879:	c3 	retq
10000387a:	66 0f 1f 44 00 00 	nopw	(%rax,%rax)
100003880:	55 	pushq	%rbp
100003881:	48 89 e5 	movq	%rsp, %rbp
100003884:	b8 ff ff ff ff 	movl	$4294967295, %eax
100003889:	5d 	popq	%rbp
10000388a:	c3 	retq
10000388b:	0f 1f 44 00 00 	nopl	(%rax,%rax)
100003890:	55 	pushq	%rbp
100003891:	48 89 e5 	movq	%rsp, %rbp
100003894:	48 83 ec 50 	subq	$80, %rsp
100003898:	40 88 f0 	movb	%sil, %al
10000389b:	48 89 7d f8 	movq	%rdi, -8(%rbp)
10000389f:	88 45 f7 	movb	%al, -9(%rbp)
1000038a2:	48 8b 75 f8 	movq	-8(%rbp), %rsi
1000038a6:	48 8d 7d e8 	leaq	-24(%rbp), %rdi
1000038aa:	48 89 7d d0 	movq	%rdi, -48(%rbp)
1000038ae:	e8 19 01 00 00 	callq	281 <dyld_stub_binder+0x1000039cc>
1000038b3:	48 8b 7d d0 	movq	-48(%rbp), %rdi
1000038b7:	e8 74 00 00 00 	callq	116 <__ZNSt3__1L9use_facetINS_5ctypeIcEEEERKT_RKNS_6localeE>
1000038bc:	48 89 45 c8 	movq	%rax, -56(%rbp)
1000038c0:	e9 00 00 00 00 	jmp	0 <__ZNKSt3__19basic_iosIcNS_11char_traitsIcEEE5widenEc+0x35>
1000038c5:	0f be 75 f7 	movsbl	-9(%rbp), %esi
1000038c9:	48 8b 7d c8 	movq	-56(%rbp), %rdi
1000038cd:	e8 8e 00 00 00 	callq	142 <__ZNKSt3__15ctypeIcE5widenEc>
1000038d2:	88 45 c7 	movb	%al, -57(%rbp)
1000038d5:	e9 00 00 00 00 	jmp	0 <__ZNKSt3__19basic_iosIcNS_11char_traitsIcEEE5widenEc+0x4a>
1000038da:	48 8d 7d e8 	leaq	-24(%rbp), %rdi
1000038de:	e8 5b 01 00 00 	callq	347 <dyld_stub_binder+0x100003a3e>
1000038e3:	8a 45 c7 	movb	-57(%rbp), %al
1000038e6:	0f be c0 	movsbl	%al, %eax
1000038e9:	48 83 c4 50 	addq	$80, %rsp
1000038ed:	5d 	popq	%rbp
1000038ee:	c3 	retq
1000038ef:	89 d1 	movl	%edx, %ecx
1000038f1:	48 89 45 e0 	movq	%rax, -32(%rbp)
1000038f5:	89 4d dc 	movl	%ecx, -36(%rbp)
1000038f8:	48 8d 7d e8 	leaq	-24(%rbp), %rdi
1000038fc:	e8 3d 01 00 00 	callq	317 <dyld_stub_binder+0x100003a3e>
100003901:	e9 00 00 00 00 	jmp	0 <__ZNKSt3__19basic_iosIcNS_11char_traitsIcEEE5widenEc+0x76>
100003906:	e9 00 00 00 00 	jmp	0 <__ZNKSt3__19basic_iosIcNS_11char_traitsIcEEE5widenEc+0x7b>
10000390b:	48 8b 7d e0 	movq	-32(%rbp), %rdi
10000390f:	e8 a0 00 00 00 	callq	160 <dyld_stub_binder+0x1000039b4>
100003914:	0f 0b 	ud2
100003916:	48 89 c7 	movq	%rax, %rdi
100003919:	48 89 55 b8 	movq	%rdx, -72(%rbp)
10000391d:	e8 ce d4 ff ff 	callq	-11058 <___clang_call_terminate>
100003922:	66 2e 0f 1f 84 00 00 00 00 00 	nopw	%cs:(%rax,%rax)
10000392c:	0f 1f 40 00 	nopl	(%rax)
100003930:	55 	pushq	%rbp
100003931:	48 89 e5 	movq	%rsp, %rbp
100003934:	48 83 ec 10 	subq	$16, %rsp
100003938:	48 8b 35 e1 06 00 00 	movq	1761(%rip), %rsi
10000393f:	48 89 7d f8 	movq	%rdi, -8(%rbp)
100003943:	48 8b 7d f8 	movq	-8(%rbp), %rdi
100003947:	e8 74 00 00 00 	callq	116 <dyld_stub_binder+0x1000039c0>
10000394c:	48 83 c4 10 	addq	$16, %rsp
100003950:	5d 	popq	%rbp
100003951:	c3 	retq
100003952:	66 2e 0f 1f 84 00 00 00 00 00 	nopw	%cs:(%rax,%rax)
10000395c:	0f 1f 40 00 	nopl	(%rax)
100003960:	55 	pushq	%rbp
100003961:	48 89 e5 	movq	%rsp, %rbp
100003964:	48 83 ec 10 	subq	$16, %rsp
100003968:	40 88 f0 	movb	%sil, %al
10000396b:	48 89 7d f8 	movq	%rdi, -8(%rbp)
10000396f:	88 45 f7 	movb	%al, -9(%rbp)
100003972:	48 8b 7d f8 	movq	-8(%rbp), %rdi
100003976:	8a 45 f7 	movb	-9(%rbp), %al
100003979:	48 8b 0f 	movq	(%rdi), %rcx
10000397c:	0f be f0 	movsbl	%al, %esi
10000397f:	ff 51 38 	callq	*56(%rcx)
100003982:	0f be c0 	movsbl	%al, %eax
100003985:	48 83 c4 10 	addq	$16, %rsp
100003989:	5d 	popq	%rbp
10000398a:	c3 	retq
10000398b:	0f 1f 44 00 00 	nopl	(%rax,%rax)
100003990:	55 	pushq	%rbp
100003991:	48 89 e5 	movq	%rsp, %rbp
100003994:	48 83 ec 10 	subq	$16, %rsp
100003998:	48 89 7d f8 	movq	%rdi, -8(%rbp)
10000399c:	89 75 f4 	movl	%esi, -12(%rbp)
10000399f:	48 8b 7d f8 	movq	-8(%rbp), %rdi
1000039a3:	8b 77 20 	movl	32(%rdi), %esi
1000039a6:	0b 75 f4 	orl	-12(%rbp), %esi
1000039a9:	e8 b4 00 00 00 	callq	180 <dyld_stub_binder+0x100003a62>
1000039ae:	48 83 c4 10 	addq	$16, %rsp
1000039b2:	5d 	popq	%rbp
1000039b3:	c3 	retq

__Z4treei:
100000980:	55 	pushq	%rbp
100000981:	48 89 e5 	movq	%rsp, %rbp
100000984:	48 81 ec 00 01 00 00 	subq	$256, %rsp
10000098b:	48 89 f8 	movq	%rdi, %rax
10000098e:	89 75 fc 	movl	%esi, -4(%rbp)
100000991:	83 7d fc 01 	cmpl	$1, -4(%rbp)
100000995:	48 89 bd 30 ff ff ff 	movq	%rdi, -208(%rbp)
10000099c:	48 89 85 28 ff ff ff 	movq	%rax, -216(%rbp)
1000009a3:	0f 85 ac 00 00 00 	jne	172 <__Z4treei+0xd5>
1000009a9:	c6 45 fb 00 	movb	$0, -5(%rbp)
1000009ad:	48 8b bd 30 ff ff ff 	movq	-208(%rbp), %rdi
1000009b4:	e8 37 03 00 00 	callq	823 <__ZNSt3__16vectorINS_12basic_stringIcNS_11char_traitsIcEENS_9allocatorIcEEEENS4_IS6_EEEC1Ev>
1000009b9:	48 8d 35 74 34 00 00 	leaq	13428(%rip), %rsi
1000009c0:	48 8d 7d e0 	leaq	-32(%rbp), %rdi
1000009c4:	e8 f7 03 00 00 	callq	1015 <__ZNSt3__112basic_stringIcNS_11char_traitsIcEENS_9allocatorIcEEEC1INS_9nullptr_tEEEPKc>
1000009c9:	e9 00 00 00 00 	jmp	0 <__Z4treei+0x4e>
1000009ce:	48 8d 75 e0 	leaq	-32(%rbp), %rsi
1000009d2:	48 8b bd 30 ff ff ff 	movq	-208(%rbp), %rdi
1000009d9:	e8 32 03 00 00 	callq	818 <__ZNSt3__16vectorINS_12basic_stringIcNS_11char_traitsIcEENS_9allocatorIcEEEENS4_IS6_EEE9push_backERKS6_>
1000009de:	e9 00 00 00 00 	jmp	0 <__Z4treei+0x63>
1000009e3:	48 8d 7d e0 	leaq	-32(%rbp), %rdi
1000009e7:	e8 1c 30 00 00 	callq	12316 <dyld_stub_binder+0x100003a08>
1000009ec:	e9 00 00 00 00 	jmp	0 <__Z4treei+0x71>
1000009f1:	c6 45 fb 01 	movb	$1, -5(%rbp)
1000009f5:	f6 45 fb 01 	testb	$1, -5(%rbp)
1000009f9:	0f 85 3b 00 00 00 	jne	59 <__Z4treei+0xba>
1000009ff:	e9 2a 00 00 00 	jmp	42 <__Z4treei+0xae>
100000a04:	89 d1 	movl	%edx, %ecx
100000a06:	48 89 45 d8 	movq	%rax, -40(%rbp)
100000a0a:	89 4d d4 	movl	%ecx, -44(%rbp)
100000a0d:	e9 2d 00 00 00 	jmp	45 <__Z4treei+0xbf>
100000a12:	89 d1 	movl	%edx, %ecx
100000a14:	48 89 45 d8 	movq	%rax, -40(%rbp)
100000a18:	89 4d d4 	movl	%ecx, -44(%rbp)
100000a1b:	48 8d 7d e0 	leaq	-32(%rbp), %rdi
100000a1f:	e8 e4 2f 00 00 	callq	12260 <dyld_stub_binder+0x100003a08>
100000a24:	e9 00 00 00 00 	jmp	0 <__Z4treei+0xa9>
100000a29:	e9 11 00 00 00 	jmp	17 <__Z4treei+0xbf>
100000a2e:	48 8b bd 30 ff ff ff 	movq	-208(%rbp), %rdi
100000a35:	e8 c6 03 00 00 	callq	966 <__ZNSt3__16vectorINS_12basic_stringIcNS_11char_traitsIcEENS_9allocatorIcEEEENS4_IS6_EEED1Ev>
100000a3a:	e9 7b 02 00 00 	jmp	635 <__Z4treei+0x33a>
100000a3f:	48 8b bd 30 ff ff ff 	movq	-208(%rbp), %rdi
100000a46:	e8 b5 03 00 00 	callq	949 <__ZNSt3__16vectorINS_12basic_stringIcNS_11char_traitsIcEENS_9allocatorIcEEEENS4_IS6_EEED1Ev>
100000a4b:	e9 00 00 00 00 	jmp	0 <__Z4treei+0xd0>
100000a50:	e9 75 02 00 00 	jmp	629 <__Z4treei+0x34a>
100000a55:	48 8d 7d b8 	leaq	-72(%rbp), %rdi
100000a59:	e8 92 02 00 00 	callq	658 <__ZNSt3__16vectorINS_12basic_stringIcNS_11char_traitsIcEENS_9allocatorIcEEEENS4_IS6_EEEC1Ev>
100000a5e:	8b 45 fc 	movl	-4(%rbp), %eax
100000a61:	ff c8 	decl	%eax
100000a63:	48 8d 7d a0 	leaq	-96(%rbp), %rdi
100000a67:	89 c6 	movl	%eax, %esi
100000a69:	e8 12 ff ff ff 	callq	-238 <__Z4treei>
100000a6e:	e9 00 00 00 00 	jmp	0 <__Z4treei+0xf3>
100000a73:	c7 45 9c 00 00 00 00 	movl	$0, -100(%rbp)
100000a7a:	48 63 45 9c 	movslq	-100(%rbp), %rax
100000a7e:	48 8d 7d a0 	leaq	-96(%rbp), %rdi
100000a82:	48 89 85 20 ff ff ff 	movq	%rax, -224(%rbp)
100000a89:	e8 92 03 00 00 	callq	914 <__ZNKSt3__16vectorINS_12basic_stringIcNS_11char_traitsIcEENS_9allocatorIcEEEENS4_IS6_EEE4sizeEv>
100000a8e:	48 8b bd 20 ff ff ff 	movq	-224(%rbp), %rdi
100000a95:	48 39 c7 	cmpq	%rax, %rdi
100000a98:	0f 83 c5 01 00 00 	jae	453 <__Z4treei+0x2e3>
100000a9e:	48 63 75 9c 	movslq	-100(%rbp), %rsi
100000aa2:	48 8d 7d a0 	leaq	-96(%rbp), %rdi
100000aa6:	e8 a5 04 00 00 	callq	1189 <__ZNSt3__16vectorINS_12basic_stringIcNS_11char_traitsIcEENS_9allocatorIcEEEENS4_IS6_EEEixEm>
100000aab:	48 89 85 18 ff ff ff 	movq	%rax, -232(%rbp)
100000ab2:	e9 00 00 00 00 	jmp	0 <__Z4treei+0x137>
100000ab7:	48 8d 35 7a 33 00 00 	leaq	13178(%rip), %rsi
100000abe:	48 8d bd 68 ff ff ff 	leaq	-152(%rbp), %rdi
100000ac5:	48 8b 95 18 ff ff ff 	movq	-232(%rbp), %rdx
100000acc:	e8 a3 2f 00 00 	callq	12195 <dyld_stub_binder+0x100003a74>
100000ad1:	e9 00 00 00 00 	jmp	0 <__Z4treei+0x156>
100000ad6:	48 8d 15 5d 33 00 00 	leaq	13149(%rip), %rdx
100000add:	48 8d 7d 80 	leaq	-128(%rbp), %rdi
100000ae1:	48 8d b5 68 ff ff ff 	leaq	-152(%rbp), %rsi
100000ae8:	e8 63 03 00 00 	callq	867 <__ZNSt3__1plIcNS_11char_traitsIcEENS_9allocatorIcEEEENS_12basic_stringIT_T0_T1_EERKS9_PKS6_>
100000aed:	e9 00 00 00 00 	jmp	0 <__Z4treei+0x172>
100000af2:	48 8d 7d b8 	leaq	-72(%rbp), %rdi
100000af6:	48 8d 75 80 	leaq	-128(%rbp), %rsi
100000afa:	e8 11 02 00 00 	callq	529 <__ZNSt3__16vectorINS_12basic_stringIcNS_11char_traitsIcEENS_9allocatorIcEEEENS4_IS6_EEE9push_backERKS6_>
100000aff:	e9 00 00 00 00 	jmp	0 <__Z4treei+0x184>
100000b04:	48 8d 7d 80 	leaq	-128(%rbp), %rdi
100000b08:	e8 fb 2e 00 00 	callq	12027 <dyld_stub_binder+0x100003a08>
100000b0d:	e9 00 00 00 00 	jmp	0 <__Z4treei+0x192>
100000b12:	48 8d bd 68 ff ff ff 	leaq	-152(%rbp), %rdi
100000b19:	e8 ea 2e 00 00 	callq	12010 <dyld_stub_binder+0x100003a08>
100000b1e:	e9 00 00 00 00 	jmp	0 <__Z4treei+0x1a3>
100000b23:	48 63 75 9c 	movslq	-100(%rbp), %rsi
100000b27:	48 8d 7d a0 	leaq	-96(%rbp), %rdi
100000b2b:	e8 20 04 00 00 	callq	1056 <__ZNSt3__16vectorINS_12basic_stringIcNS_11char_traitsIcEENS_9allocatorIcEEEENS4_IS6_EEEixEm>
100000b30:	48 89 85 10 ff ff ff 	movq	%rax, -240(%rbp)
100000b37:	e9 00 00 00 00 	jmp	0 <__Z4treei+0x1bc>
100000b3c:	48 8d 35 fa 32 00 00 	leaq	13050(%rip), %rsi
100000b43:	48 8d bd 38 ff ff ff 	leaq	-200(%rbp), %rdi
100000b4a:	48 8b 95 10 ff ff ff 	movq	-240(%rbp), %rdx
100000b51:	e8 1e 2f 00 00 	callq	12062 <dyld_stub_binder+0x100003a74>
100000b56:	e9 00 00 00 00 	jmp	0 <__Z4treei+0x1db>
100000b5b:	48 8d 15 de 32 00 00 	leaq	13022(%rip), %rdx
100000b62:	48 8d bd 50 ff ff ff 	leaq	-176(%rbp), %rdi
100000b69:	48 8d b5 38 ff ff ff 	leaq	-200(%rbp), %rsi
100000b70:	e8 db 02 00 00 	callq	731 <__ZNSt3__1plIcNS_11char_traitsIcEENS_9allocatorIcEEEENS_12basic_stringIT_T0_T1_EERKS9_PKS6_>
100000b75:	e9 00 00 00 00 	jmp	0 <__Z4treei+0x1fa>
100000b7a:	48 8d 7d b8 	leaq	-72(%rbp), %rdi
100000b7e:	48 8d b5 50 ff ff ff 	leaq	-176(%rbp), %rsi
100000b85:	e8 86 01 00 00 	callq	390 <__ZNSt3__16vectorINS_12basic_stringIcNS_11char_traitsIcEENS_9allocatorIcEEEENS4_IS6_EEE9push_backERKS6_>
100000b8a:	e9 00 00 00 00 	jmp	0 <__Z4treei+0x20f>
100000b8f:	48 8d bd 50 ff ff ff 	leaq	-176(%rbp), %rdi
100000b96:	e8 6d 2e 00 00 	callq	11885 <dyld_stub_binder+0x100003a08>
100000b9b:	e9 00 00 00 00 	jmp	0 <__Z4treei+0x220>
100000ba0:	48 8d bd 38 ff ff ff 	leaq	-200(%rbp), %rdi
100000ba7:	e8 5c 2e 00 00 	callq	11868 <dyld_stub_binder+0x100003a08>
100000bac:	e9 00 00 00 00 	jmp	0 <__Z4treei+0x231>
100000bb1:	e9 00 00 00 00 	jmp	0 <__Z4treei+0x236>
100000bb6:	8b 45 9c 	movl	-100(%rbp), %eax
100000bb9:	83 c0 01 	addl	$1, %eax
100000bbc:	89 45 9c 	movl	%eax, -100(%rbp)
100000bbf:	e9 b6 fe ff ff 	jmp	-330 <__Z4treei+0xfa>
100000bc4:	89 d1 	movl	%edx, %ecx
100000bc6:	48 89 45 d8 	movq	%rax, -40(%rbp)
100000bca:	89 4d d4 	movl	%ecx, -44(%rbp)
100000bcd:	e9 d5 00 00 00 	jmp	213 <__Z4treei+0x327>
100000bd2:	89 d1 	movl	%edx, %ecx
100000bd4:	48 89 45 d8 	movq	%rax, -40(%rbp)
100000bd8:	89 4d d4 	movl	%ecx, -44(%rbp)
100000bdb:	e9 b4 00 00 00 	jmp	180 <__Z4treei+0x314>
100000be0:	89 d1 	movl	%edx, %ecx
100000be2:	48 89 45 d8 	movq	%rax, -40(%rbp)
100000be6:	89 4d d4 	movl	%ecx, -44(%rbp)
100000be9:	e9 1c 00 00 00 	jmp	28 <__Z4treei+0x28a>
100000bee:	89 d1 	movl	%edx, %ecx
100000bf0:	48 89 45 d8 	movq	%rax, -40(%rbp)
100000bf4:	89 4d d4 	movl	%ecx, -44(%rbp)
100000bf7:	48 8d 7d 80 	leaq	-128(%rbp), %rdi
100000bfb:	e8 08 2e 00 00 	callq	11784 <dyld_stub_binder+0x100003a08>
100000c00:	e9 00 00 00 00 	jmp	0 <__Z4treei+0x285>
100000c05:	e9 00 00 00 00 	jmp	0 <__Z4treei+0x28a>
100000c0a:	48 8d bd 68 ff ff ff 	leaq	-152(%rbp), %rdi
100000c11:	e8 f2 2d 00 00 	callq	11762 <dyld_stub_binder+0x100003a08>
100000c16:	e9 00 00 00 00 	jmp	0 <__Z4treei+0x29b>
100000c1b:	e9 74 00 00 00 	jmp	116 <__Z4treei+0x314>
100000c20:	89 d1 	movl	%edx, %ecx
100000c22:	48 89 45 d8 	movq	%rax, -40(%rbp)
100000c26:	89 4d d4 	movl	%ecx, -44(%rbp)
100000c29:	e9 1f 00 00 00 	jmp	31 <__Z4treei+0x2cd>
100000c2e:	89 d1 	movl	%edx, %ecx
100000c30:	48 89 45 d8 	movq	%rax, -40(%rbp)
100000c34:	89 4d d4 	movl	%ecx, -44(%rbp)
100000c37:	48 8d bd 50 ff ff ff 	leaq	-176(%rbp), %rdi
100000c3e:	e8 c5 2d 00 00 	callq	11717 <dyld_stub_binder+0x100003a08>
100000c43:	e9 00 00 00 00 	jmp	0 <__Z4treei+0x2c8>
100000c48:	e9 00 00 00 00 	jmp	0 <__Z4treei+0x2cd>
100000c4d:	48 8d bd 38 ff ff ff 	leaq	-200(%rbp), %rdi
100000c54:	e8 af 2d 00 00 	callq	11695 <dyld_stub_binder+0x100003a08>
100000c59:	e9 00 00 00 00 	jmp	0 <__Z4treei+0x2de>
100000c5e:	e9 31 00 00 00 	jmp	49 <__Z4treei+0x314>
100000c63:	48 8d 75 b8 	leaq	-72(%rbp), %rsi
100000c67:	48 8b bd 30 ff ff ff 	movq	-208(%rbp), %rdi
100000c6e:	e8 fd 02 00 00 	callq	765 <__ZNSt3__16vectorINS_12basic_stringIcNS_11char_traitsIcEENS_9allocatorIcEEEENS4_IS6_EEEC1ERKS8_>
100000c73:	e9 00 00 00 00 	jmp	0 <__Z4treei+0x2f8>
100000c78:	48 8d 7d a0 	leaq	-96(%rbp), %rdi
100000c7c:	e8 7f 01 00 00 	callq	383 <__ZNSt3__16vectorINS_12basic_stringIcNS_11char_traitsIcEENS_9allocatorIcEEEENS4_IS6_EEED1Ev>
100000c81:	e9 00 00 00 00 	jmp	0 <__Z4treei+0x306>
100000c86:	48 8d 7d b8 	leaq	-72(%rbp), %rdi
100000c8a:	e8 71 01 00 00 	callq	369 <__ZNSt3__16vectorINS_12basic_stringIcNS_11char_traitsIcEENS_9allocatorIcEEEENS4_IS6_EEED1Ev>
100000c8f:	e9 26 00 00 00 	jmp	38 <__Z4treei+0x33a>
100000c94:	48 8d 7d a0 	leaq	-96(%rbp), %rdi
100000c98:	e8 63 01 00 00 	callq	355 <__ZNSt3__16vectorINS_12basic_stringIcNS_11char_traitsIcEENS_9allocatorIcEEEENS4_IS6_EEED1Ev>
100000c9d:	e9 00 00 00 00 	jmp	0 <__Z4treei+0x322>
100000ca2:	e9 00 00 00 00 	jmp	0 <__Z4treei+0x327>
100000ca7:	48 8d 7d b8 	leaq	-72(%rbp), %rdi
100000cab:	e8 50 01 00 00 	callq	336 <__ZNSt3__16vectorINS_12basic_stringIcNS_11char_traitsIcEENS_9allocatorIcEEEENS4_IS6_EEED1Ev>
100000cb0:	e9 00 00 00 00 	jmp	0 <__Z4treei+0x335>
100000cb5:	e9 10 00 00 00 	jmp	16 <__Z4treei+0x34a>
100000cba:	48 8b 85 28 ff ff ff 	movq	-216(%rbp), %rax
100000cc1:	48 81 c4 00 01 00 00 	addq	$256, %rsp
100000cc8:	5d 	popq	%rbp
100000cc9:	c3 	retq
100000cca:	48 8b 7d d8 	movq	-40(%rbp), %rdi
100000cce:	e8 e1 2c 00 00 	callq	11489 <dyld_stub_binder+0x1000039b4>
100000cd3:	0f 0b 	ud2
100000cd5:	48 89 c7 	movq	%rax, %rdi
100000cd8:	48 89 95 08 ff ff ff 	movq	%rdx, -248(%rbp)
100000cdf:	e8 0c 01 00 00 	callq	268 <___clang_call_terminate>
100000ce4:	66 2e 0f 1f 84 00 00 00 00 00 	nopw	%cs:(%rax,%rax)
100000cee:	66 90 	nop

__ZNSt3__16vectorINS_12basic_stringIcNS_11char_traitsIcEENS_9allocatorIcEEEENS4_IS6_EEEC1Ev:
100000cf0:	55 	pushq	%rbp
100000cf1:	48 89 e5 	movq	%rsp, %rbp
100000cf4:	48 83 ec 10 	subq	$16, %rsp
100000cf8:	48 89 7d f8 	movq	%rdi, -8(%rbp)
100000cfc:	48 8b 7d f8 	movq	-8(%rbp), %rdi
100000d00:	e8 cb 04 00 00 	callq	1227 <__ZNSt3__16vectorINS_12basic_stringIcNS_11char_traitsIcEENS_9allocatorIcEEEENS4_IS6_EEEC2Ev>
100000d05:	48 83 c4 10 	addq	$16, %rsp
100000d09:	5d 	popq	%rbp
100000d0a:	c3 	retq
100000d0b:	0f 1f 44 00 00 	nopl	(%rax,%rax)

__ZNSt3__16vectorINS_12basic_stringIcNS_11char_traitsIcEENS_9allocatorIcEEEENS4_IS6_EEE9push_backERKS6_:
100000d10:	55 	pushq	%rbp
100000d11:	48 89 e5 	movq	%rsp, %rbp
100000d14:	48 83 ec 30 	subq	$48, %rsp
100000d18:	48 89 7d f8 	movq	%rdi, -8(%rbp)
100000d1c:	48 89 75 f0 	movq	%rsi, -16(%rbp)
100000d20:	48 8b 75 f8 	movq	-8(%rbp), %rsi
100000d24:	48 8b 7e 08 	movq	8(%rsi), %rdi
100000d28:	48 89 f0 	movq	%rsi, %rax
100000d2b:	48 89 7d e0 	movq	%rdi, -32(%rbp)
100000d2f:	48 89 c7 	movq	%rax, %rdi
100000d32:	48 89 75 d8 	movq	%rsi, -40(%rbp)
100000d36:	e8 35 0c 00 00 	callq	3125 <__ZNSt3__113__vector_baseINS_12basic_stringIcNS_11char_traitsIcEENS_9allocatorIcEEEENS4_IS6_EEE9__end_capEv>
100000d3b:	48 8b 75 e0 	movq	-32(%rbp), %rsi
100000d3f:	48 3b 30 	cmpq	(%rax), %rsi
100000d42:	0f 84 5d 00 00 00 	je	93 <__ZNSt3__16vectorINS_12basic_stringIcNS_11char_traitsIcEENS_9allocatorIcEEEENS4_IS6_EEE9push_backERKS6_+0x95>
100000d48:	48 8d 7d e8 	leaq	-24(%rbp), %rdi
100000d4c:	48 8b 75 d8 	movq	-40(%rbp), %rsi
100000d50:	ba 01 00 00 00 	movl	$1, %edx
100000d55:	e8 36 0c 00 00 	callq	3126 <__ZNSt3__16vectorINS_12basic_stringIcNS_11char_traitsIcEENS_9allocatorIcEEEENS4_IS6_EEE24__RAII_IncreaseAnnotatorC1ERKS8_m>
100000d5a:	48 8b 55 d8 	movq	-40(%rbp), %rdx
100000d5e:	48 89 d7 	movq	%rdx, %rdi
100000d61:	e8 aa 09 00 00 	callq	2474 <__ZNSt3__113__vector_baseINS_12basic_stringIcNS_11char_traitsIcEENS_9allocatorIcEEEENS4_IS6_EEE7__allocEv>
100000d66:	48 8b 55 d8 	movq	-40(%rbp), %rdx
100000d6a:	48 8b 7a 08 	movq	8(%rdx), %rdi
100000d6e:	48 89 45 d0 	movq	%rax, -48(%rbp)
100000d72:	e8 a9 08 00 00 	callq	2217 <__ZNSt3__1L16__to_raw_pointerINS_12basic_stringIcNS_11char_traitsIcEENS_9allocatorIcEEEEEEPT_S8_>
100000d77:	48 8b 55 f0 	movq	-16(%rbp), %rdx
100000d7b:	48 8b 7d d0 	movq	-48(%rbp), %rdi
100000d7f:	48 89 c6 	movq	%rax, %rsi
100000d82:	e8 39 0c 00 00 	callq	3129 <__ZNSt3__116allocator_traitsINS_9allocatorINS_12basic_stringIcNS_11char_traitsIcEENS1_IcEEEEEEE9constructIS6_S6_EEvRS7_PT_RKT0_>
100000d87:	48 8d 7d e8 	leaq	-24(%rbp), %rdi
100000d8b:	e8 60 0c 00 00 	callq	3168 <__ZNSt3__16vectorINS_12basic_stringIcNS_11char_traitsIcEENS_9allocatorIcEEEENS4_IS6_EEE24__RAII_IncreaseAnnotator6__doneEv>
100000d90:	48 8b 45 d8 	movq	-40(%rbp), %rax
100000d94:	48 8b 50 08 	movq	8(%rax), %rdx
100000d98:	48 83 c2 18 	addq	$24, %rdx
100000d9c:	48 89 50 08 	movq	%rdx, 8(%rax)
100000da0:	e9 0d 00 00 00 	jmp	13 <__ZNSt3__16vectorINS_12basic_stringIcNS_11char_traitsIcEENS_9allocatorIcEEEENS4_IS6_EEE9push_backERKS6_+0xa2>
100000da5:	48 8b 75 f0 	movq	-16(%rbp), %rsi
100000da9:	48 8b 7d d8 	movq	-40(%rbp), %rdi
100000dad:	e8 9e 2c 00 00 	callq	11422 <dyld_stub_binder+0x100003a50>
100000db2:	48 83 c4 30 	addq	$48, %rsp
100000db6:	5d 	popq	%rbp
100000db7:	c3 	retq
100000db8:	0f 1f 84 00 00 00 00 00 	nopl	(%rax,%rax)

__ZNSt3__112basic_stringIcNS_11char_traitsIcEENS_9allocatorIcEEEC1INS_9nullptr_tEEEPKc:
100000dc0:	55 	pushq	%rbp
100000dc1:	48 89 e5 	movq	%rsp, %rbp
100000dc4:	48 83 ec 10 	subq	$16, %rsp
100000dc8:	48 89 7d f8 	movq	%rdi, -8(%rbp)
100000dcc:	48 89 75 f0 	movq	%rsi, -16(%rbp)
100000dd0:	48 8b 7d f8 	movq	-8(%rbp), %rdi
100000dd4:	48 8b 75 f0 	movq	-16(%rbp), %rsi
100000dd8:	e8 93 19 00 00 	callq	6547 <__ZNSt3__112basic_stringIcNS_11char_traitsIcEENS_9allocatorIcEEEC2INS_9nullptr_tEEEPKc>
100000ddd:	48 83 c4 10 	addq	$16, %rsp
100000de1:	5d 	popq	%rbp
100000de2:	c3 	retq
100000de3:	66 2e 0f 1f 84 00 00 00 00 00 	nopw	%cs:(%rax,%rax)
100000ded:	0f 1f 00 	nopl	(%rax)

___clang_call_terminate:
100000df0:	50 	pushq	%rax
100000df1:	e8 9c 2c 00 00 	callq	11420 <dyld_stub_binder+0x100003a92>
100000df6:	48 89 04 24 	movq	%rax, (%rsp)
100000dfa:	e8 7b 2c 00 00 	callq	11387 <dyld_stub_binder+0x100003a7a>
100000dff:	90 	nop

__ZNSt3__16vectorINS_12basic_stringIcNS_11char_traitsIcEENS_9allocatorIcEEEENS4_IS6_EEED1Ev:
100000e00:	55 	pushq	%rbp
100000e01:	48 89 e5 	movq	%rsp, %rbp
100000e04:	48 83 ec 10 	subq	$16, %rsp
100000e08:	48 89 7d f8 	movq	%rdi, -8(%rbp)
100000e0c:	48 8b 7d f8 	movq	-8(%rbp), %rdi
100000e10:	e8 fb 05 00 00 	callq	1531 <__ZNSt3__16vectorINS_12basic_stringIcNS_11char_traitsIcEENS_9allocatorIcEEEENS4_IS6_EEED2Ev>
100000e15:	48 83 c4 10 	addq	$16, %rsp
100000e19:	5d 	popq	%rbp
100000e1a:	c3 	retq
100000e1b:	0f 1f 44 00 00 	nopl	(%rax,%rax)

__ZNKSt3__16vectorINS_12basic_stringIcNS_11char_traitsIcEENS_9allocatorIcEEEENS4_IS6_EEE4sizeEv:
100000e20:	55 	pushq	%rbp
100000e21:	48 89 e5 	movq	%rsp, %rbp
100000e24:	48 89 7d f8 	movq	%rdi, -8(%rbp)
100000e28:	48 8b 7d f8 	movq	-8(%rbp), %rdi
100000e2c:	48 8b 47 08 	movq	8(%rdi), %rax
100000e30:	48 8b 3f 	movq	(%rdi), %rdi
100000e33:	48 29 f8 	subq	%rdi, %rax
100000e36:	48 99 	cqto
100000e38:	bf 18 00 00 00 	movl	$24, %edi
100000e3d:	48 f7 ff 	idivq	%rdi
100000e40:	5d 	popq	%rbp
100000e41:	c3 	retq
100000e42:	66 2e 0f 1f 84 00 00 00 00 00 	nopw	%cs:(%rax,%rax)
100000e4c:	0f 1f 40 00 	nopl	(%rax)

__ZNSt3__1plIcNS_11char_traitsIcEENS_9allocatorIcEEEENS_12basic_stringIT_T0_T1_EERKS9_PKS6_:
100000e50:	55 	pushq	%rbp
100000e51:	48 89 e5 	movq	%rsp, %rbp
100000e54:	48 83 ec 70 	subq	$112, %rsp
100000e58:	48 89 f8 	movq	%rdi, %rax
100000e5b:	48 89 75 f8 	movq	%rsi, -8(%rbp)
100000e5f:	48 89 55 f0 	movq	%rdx, -16(%rbp)
100000e63:	c6 45 ef 00 	movb	$0, -17(%rbp)
100000e67:	48 8b 55 f8 	movq	-8(%rbp), %rdx
100000e6b:	48 89 7d b8 	movq	%rdi, -72(%rbp)
100000e6f:	48 89 d7 	movq	%rdx, %rdi
100000e72:	48 89 45 b0 	movq	%rax, -80(%rbp)
100000e76:	e8 f5 1d 00 00 	callq	7669 <__ZNKSt3__112basic_stringIcNS_11char_traitsIcEENS_9allocatorIcEEE13get_allocatorEv>
100000e7b:	48 8d 75 e8 	leaq	-24(%rbp), %rsi
100000e7f:	48 8b 7d b8 	movq	-72(%rbp), %rdi
100000e83:	e8 08 1e 00 00 	callq	7688 <__ZNSt3__112basic_stringIcNS_11char_traitsIcEENS_9allocatorIcEEEC1ERKS4_>
100000e88:	48 8b 7d f8 	movq	-8(%rbp), %rdi
100000e8c:	e8 2f 1e 00 00 	callq	7727 <__ZNKSt3__112basic_stringIcNS_11char_traitsIcEENS_9allocatorIcEEE4sizeEv>
100000e91:	48 89 45 d8 	movq	%rax, -40(%rbp)
100000e95:	48 8b 7d f0 	movq	-16(%rbp), %rdi
100000e99:	e8 46 2b 00 00 	callq	11078 <dyld_stub_binder+0x1000039e4>
100000e9e:	48 89 45 d0 	movq	%rax, -48(%rbp)
100000ea2:	48 8b 7d f8 	movq	-8(%rbp), %rdi
100000ea6:	e8 65 1e 00 00 	callq	7781 <__ZNKSt3__112basic_stringIcNS_11char_traitsIcEENS_9allocatorIcEEE4dataEv>
100000eab:	48 8b 55 d8 	movq	-40(%rbp), %rdx
100000eaf:	48 8b 75 d0 	movq	-48(%rbp), %rsi
100000eb3:	48 89 d7 	movq	%rdx, %rdi
100000eb6:	48 01 f7 	addq	%rsi, %rdi
100000eb9:	48 8b 75 b8 	movq	-72(%rbp), %rsi
100000ebd:	48 89 7d a8 	movq	%rdi, -88(%rbp)
100000ec1:	48 89 f7 	movq	%rsi, %rdi
100000ec4:	48 89 c6 	movq	%rax, %rsi
100000ec7:	48 8b 4d a8 	movq	-88(%rbp), %rcx
100000ecb:	e8 20 2b 00 00 	callq	11040 <dyld_stub_binder+0x1000039f0>
100000ed0:	e9 00 00 00 00 	jmp	0 <__ZNSt3__1plIcNS_11char_traitsIcEENS_9allocatorIcEEEENS_12basic_stringIT_T0_T1_EERKS9_PKS6_+0x85>
100000ed5:	48 8b 75 f0 	movq	-16(%rbp), %rsi
100000ed9:	48 8b 55 d0 	movq	-48(%rbp), %rdx
100000edd:	48 8b 7d b8 	movq	-72(%rbp), %rdi
100000ee1:	e8 16 2b 00 00 	callq	11030 <dyld_stub_binder+0x1000039fc>
100000ee6:	48 89 45 a0 	movq	%rax, -96(%rbp)
100000eea:	e9 00 00 00 00 	jmp	0 <__ZNSt3__1plIcNS_11char_traitsIcEENS_9allocatorIcEEEENS_12basic_stringIT_T0_T1_EERKS9_PKS6_+0x9f>
100000eef:	c6 45 ef 01 	movb	$1, -17(%rbp)
100000ef3:	f6 45 ef 01 	testb	$1, -17(%rbp)
100000ef7:	0f 85 25 00 00 00 	jne	37 <__ZNSt3__1plIcNS_11char_traitsIcEENS_9allocatorIcEEEENS_12basic_stringIT_T0_T1_EERKS9_PKS6_+0xd2>
100000efd:	e9 17 00 00 00 	jmp	23 <__ZNSt3__1plIcNS_11char_traitsIcEENS_9allocatorIcEEEENS_12basic_stringIT_T0_T1_EERKS9_PKS6_+0xc9>
100000f02:	89 d1 	movl	%edx, %ecx
100000f04:	48 89 45 c8 	movq	%rax, -56(%rbp)
100000f08:	89 4d c4 	movl	%ecx, -60(%rbp)
100000f0b:	48 8b 7d b8 	movq	-72(%rbp), %rdi
100000f0f:	e8 f4 2a 00 00 	callq	10996 <dyld_stub_binder+0x100003a08>
100000f14:	e9 13 00 00 00 	jmp	19 <__ZNSt3__1plIcNS_11char_traitsIcEENS_9allocatorIcEEEENS_12basic_stringIT_T0_T1_EERKS9_PKS6_+0xdc>
100000f19:	48 8b 7d b8 	movq	-72(%rbp), %rdi
100000f1d:	e8 e6 2a 00 00 	callq	10982 <dyld_stub_binder+0x100003a08>
100000f22:	48 8b 45 b0 	movq	-80(%rbp), %rax
100000f26:	48 83 c4 70 	addq	$112, %rsp
100000f2a:	5d 	popq	%rbp
100000f2b:	c3 	retq
100000f2c:	e9 00 00 00 00 	jmp	0 <__ZNSt3__1plIcNS_11char_traitsIcEENS_9allocatorIcEEEENS_12basic_stringIT_T0_T1_EERKS9_PKS6_+0xe1>
100000f31:	48 8b 7d c8 	movq	-56(%rbp), %rdi
100000f35:	e8 7a 2a 00 00 	callq	10874 <dyld_stub_binder+0x1000039b4>
100000f3a:	0f 0b 	ud2
100000f3c:	48 89 c7 	movq	%rax, %rdi
100000f3f:	48 89 55 98 	movq	%rdx, -104(%rbp)
100000f43:	e8 a8 fe ff ff 	callq	-344 <___clang_call_terminate>
100000f48:	0f 1f 84 00 00 00 00 00 	nopl	(%rax,%rax)

__ZNSt3__16vectorINS_12basic_stringIcNS_11char_traitsIcEENS_9allocatorIcEEEENS4_IS6_EEEixEm:
100000f50:	55 	pushq	%rbp
100000f51:	48 89 e5 	movq	%rsp, %rbp
100000f54:	48 89 7d f8 	movq	%rdi, -8(%rbp)
100000f58:	48 89 75 f0 	movq	%rsi, -16(%rbp)
100000f5c:	48 8b 75 f8 	movq	-8(%rbp), %rsi
100000f60:	48 8b 36 	movq	(%rsi), %rsi
100000f63:	48 6b 7d f0 18 	imulq	$24, -16(%rbp), %rdi
100000f68:	48 01 fe 	addq	%rdi, %rsi
100000f6b:	48 89 f0 	movq	%rsi, %rax
100000f6e:	5d 	popq	%rbp
100000f6f:	c3 	retq

__ZNSt3__16vectorINS_12basic_stringIcNS_11char_traitsIcEENS_9allocatorIcEEEENS4_IS6_EEEC1ERKS8_:
100000f70:	55 	pushq	%rbp
100000f71:	48 89 e5 	movq	%rsp, %rbp
100000f74:	48 83 ec 10 	subq	$16, %rsp
100000f78:	48 89 7d f8 	movq	%rdi, -8(%rbp)
100000f7c:	48 89 75 f0 	movq	%rsi, -16(%rbp)
100000f80:	48 8b 7d f8 	movq	-8(%rbp), %rdi
100000f84:	48 8b 75 f0 	movq	-16(%rbp), %rsi
100000f88:	e8 13 19 00 00 	callq	6419 <__ZNSt3__16vectorINS_12basic_stringIcNS_11char_traitsIcEENS_9allocatorIcEEEENS4_IS6_EEEC2ERKS8_>
100000f8d:	48 83 c4 10 	addq	$16, %rsp
100000f91:	5d 	popq	%rbp
100000f92:	c3 	retq
100000f93:	66 2e 0f 1f 84 00 00 00 00 00 	nopw	%cs:(%rax,%rax)
100000f9d:	0f 1f 00 	nopl	(%rax)

_main:
100000fa0:	55 	pushq	%rbp
100000fa1:	48 89 e5 	movq	%rsp, %rbp
100000fa4:	48 83 ec 70 	subq	$112, %rsp
100000fa8:	48 8b 3d 69 30 00 00 	movq	12393(%rip), %rdi
100000faf:	c7 45 fc 00 00 00 00 	movl	$0, -4(%rbp)
100000fb6:	48 8d 35 85 2e 00 00 	leaq	11909(%rip), %rsi
100000fbd:	e8 a6 2a 00 00 	callq	10918 <dyld_stub_binder+0x100003a68>
100000fc2:	48 8b 3d 47 30 00 00 	movq	12359(%rip), %rdi
100000fc9:	48 8d 75 f8 	leaq	-8(%rbp), %rsi
100000fcd:	48 89 45 c0 	movq	%rax, -64(%rbp)
100000fd1:	e8 38 2a 00 00 	callq	10808 <dyld_stub_binder+0x100003a0e>
100000fd6:	8b 75 f8 	movl	-8(%rbp), %esi
100000fd9:	48 8d 7d e0 	leaq	-32(%rbp), %rdi
100000fdd:	48 89 45 b8 	movq	%rax, -72(%rbp)
100000fe1:	e8 9a f9 ff ff 	callq	-1638 <__Z4treei>
100000fe6:	48 63 45 dc 	movslq	-36(%rbp), %rax
100000fea:	48 8d 7d e0 	leaq	-32(%rbp), %rdi
100000fee:	48 89 45 b0 	movq	%rax, -80(%rbp)
100000ff2:	e8 29 fe ff ff 	callq	-471 <__ZNKSt3__16vectorINS_12basic_stringIcNS_11char_traitsIcEENS_9allocatorIcEEEENS4_IS6_EEE4sizeEv>
100000ff7:	48 8b 7d b0 	movq	-80(%rbp), %rdi
100000ffb:	48 39 c7 	cmpq	%rax, %rdi
100000ffe:	0f 83 72 00 00 00 	jae	114 <_main+0xd6>
100001004:	48 63 75 dc 	movslq	-36(%rbp), %rsi
100001008:	48 8d 7d e0 	leaq	-32(%rbp), %rdi
10000100c:	e8 3f ff ff ff 	callq	-193 <__ZNSt3__16vectorINS_12basic_stringIcNS_11char_traitsIcEENS_9allocatorIcEEEENS4_IS6_EEEixEm>
100001011:	48 89 45 a8 	movq	%rax, -88(%rbp)
100001015:	e9 00 00 00 00 	jmp	0 <_main+0x7a>
10000101a:	48 8b 3d f7 2f 00 00 	movq	12279(%rip), %rdi
100001021:	48 8b 75 a8 	movq	-88(%rbp), %rsi
100001025:	e8 44 2a 00 00 	callq	10820 <dyld_stub_binder+0x100003a6e>
10000102a:	48 89 45 a0 	movq	%rax, -96(%rbp)
10000102e:	e9 00 00 00 00 	jmp	0 <_main+0x93>
100001033:	48 8d 35 36 01 00 00 	leaq	310(%rip), %rsi
10000103a:	48 8b 7d a0 	movq	-96(%rbp), %rdi
10000103e:	e8 0d 01 00 00 	callq	269 <__ZNSt3__113basic_ostreamIcNS_11char_traitsIcEEElsEPFRS3_S4_E>
100001043:	48 89 45 98 	movq	%rax, -104(%rbp)
100001047:	e9 00 00 00 00 	jmp	0 <_main+0xac>
10000104c:	e9 00 00 00 00 	jmp	0 <_main+0xb1>
100001051:	8b 45 dc 	movl	-36(%rbp), %eax
100001054:	83 c0 01 	addl	$1, %eax
100001057:	89 45 dc 	movl	%eax, -36(%rbp)
10000105a:	e9 87 ff ff ff 	jmp	-121 <_main+0x46>
10000105f:	89 d1 	movl	%edx, %ecx
100001061:	48 89 45 d0 	movq	%rax, -48(%rbp)
100001065:	89 4d cc 	movl	%ecx, -52(%rbp)
100001068:	48 8d 7d e0 	leaq	-32(%rbp), %rdi
10000106c:	e8 8f fd ff ff 	callq	-625 <__ZNSt3__16vectorINS_12basic_stringIcNS_11char_traitsIcEENS_9allocatorIcEEEENS4_IS6_EEED1Ev>
100001071:	e9 19 00 00 00 	jmp	25 <_main+0xef>
100001076:	c7 45 fc 00 00 00 00 	movl	$0, -4(%rbp)
10000107d:	48 8d 7d e0 	leaq	-32(%rbp), %rdi
100001081:	e8 7a fd ff ff 	callq	-646 <__ZNSt3__16vectorINS_12basic_stringIcNS_11char_traitsIcEENS_9allocatorIcEEEENS4_IS6_EEED1Ev>
100001086:	8b 45 fc 	movl	-4(%rbp), %eax
100001089:	48 83 c4 70 	addq	$112, %rsp
10000108d:	5d 	popq	%rbp
10000108e:	c3 	retq
10000108f:	e9 00 00 00 00 	jmp	0 <_main+0xf4>
100001094:	48 8b 7d d0 	movq	-48(%rbp), %rdi
100001098:	e8 17 29 00 00 	callq	10519 <dyld_stub_binder+0x1000039b4>
10000109d:	0f 0b 	ud2
10000109f:	48 89 c7 	movq	%rax, %rdi
1000010a2:	48 89 55 90 	movq	%rdx, -112(%rbp)
1000010a6:	e8 45 fd ff ff 	callq	-699 <___clang_call_terminate>
1000010ab:	0f 1f 44 00 00 	nopl	(%rax,%rax)

__ZNSt3__1lsINS_11char_traitsIcEEEERNS_13basic_ostreamIcT_EES6_PKc:
1000010b0:	55 	pushq	%rbp
1000010b1:	48 89 e5 	movq	%rsp, %rbp
1000010b4:	48 83 ec 20 	subq	$32, %rsp
1000010b8:	48 89 7d f8 	movq	%rdi, -8(%rbp)
1000010bc:	48 89 75 f0 	movq	%rsi, -16(%rbp)
1000010c0:	48 8b 7d f8 	movq	-8(%rbp), %rdi
1000010c4:	48 8b 75 f0 	movq	-16(%rbp), %rsi
1000010c8:	48 8b 45 f0 	movq	-16(%rbp), %rax
1000010cc:	48 89 7d e8 	movq	%rdi, -24(%rbp)
1000010d0:	48 89 c7 	movq	%rax, %rdi
1000010d3:	48 89 75 e0 	movq	%rsi, -32(%rbp)
1000010d7:	e8 08 29 00 00 	callq	10504 <dyld_stub_binder+0x1000039e4>
1000010dc:	48 8b 7d e8 	movq	-24(%rbp), %rdi
1000010e0:	48 8b 75 e0 	movq	-32(%rbp), %rsi
1000010e4:	48 89 c2 	movq	%rax, %rdx
1000010e7:	e8 4c 29 00 00 	callq	10572 <dyld_stub_binder+0x100003a38>
1000010ec:	48 83 c4 20 	addq	$32, %rsp
1000010f0:	5d 	popq	%rbp
1000010f1:	c3 	retq
1000010f2:	66 2e 0f 1f 84 00 00 00 00 00 	nopw	%cs:(%rax,%rax)
1000010fc:	0f 1f 40 00 	nopl	(%rax)

__ZNSt3__1lsIcNS_11char_traitsIcEENS_9allocatorIcEEEERNS_13basic_ostreamIT_T0_EES9_RKNS_12basic_stringIS6_S7_T1_EE:
100001100:	55 	pushq	%rbp
100001101:	48 89 e5 	movq	%rsp, %rbp
100001104:	48 83 ec 20 	subq	$32, %rsp
100001108:	48 89 7d f8 	movq	%rdi, -8(%rbp)
10000110c:	48 89 75 f0 	movq	%rsi, -16(%rbp)
100001110:	48 8b 7d f8 	movq	-8(%rbp), %rdi
100001114:	48 8b 75 f0 	movq	-16(%rbp), %rsi
100001118:	48 89 7d e8 	movq	%rdi, -24(%rbp)
10000111c:	48 89 f7 	movq	%rsi, %rdi
10000111f:	e8 ec 1b 00 00 	callq	7148 <__ZNKSt3__112basic_stringIcNS_11char_traitsIcEENS_9allocatorIcEEE4dataEv>
100001124:	48 8b 7d f0 	movq	-16(%rbp), %rdi
100001128:	48 89 45 e0 	movq	%rax, -32(%rbp)
10000112c:	e8 8f 1b 00 00 	callq	7055 <__ZNKSt3__112basic_stringIcNS_11char_traitsIcEENS_9allocatorIcEEE4sizeEv>
100001131:	48 8b 7d e8 	movq	-24(%rbp), %rdi
100001135:	48 8b 75 e0 	movq	-32(%rbp), %rsi
100001139:	48 89 c2 	movq	%rax, %rdx
10000113c:	e8 f7 28 00 00 	callq	10487 <dyld_stub_binder+0x100003a38>
100001141:	48 83 c4 20 	addq	$32, %rsp
100001145:	5d 	popq	%rbp
100001146:	c3 	retq
100001147:	66 0f 1f 84 00 00 00 00 00 	nopw	(%rax,%rax)

__ZNSt3__113basic_ostreamIcNS_11char_traitsIcEEElsEPFRS3_S4_E:
100001150:	55 	pushq	%rbp
100001151:	48 89 e5 	movq	%rsp, %rbp
100001154:	48 83 ec 10 	subq	$16, %rsp
100001158:	48 89 7d f8 	movq	%rdi, -8(%rbp)
10000115c:	48 89 75 f0 	movq	%rsi, -16(%rbp)
100001160:	48 8b 7d f8 	movq	-8(%rbp), %rdi
100001164:	ff 55 f0 	callq	*-16(%rbp)
100001167:	48 83 c4 10 	addq	$16, %rsp
10000116b:	5d 	popq	%rbp
10000116c:	c3 	retq
10000116d:	0f 1f 00 	nopl	(%rax)

__ZNSt3__1L4endlIcNS_11char_traitsIcEEEERNS_13basic_ostreamIT_T0_EES7_:
100001170:	55 	pushq	%rbp
100001171:	48 89 e5 	movq	%rsp, %rbp
100001174:	48 83 ec 20 	subq	$32, %rsp
100001178:	48 89 7d f8 	movq	%rdi, -8(%rbp)
10000117c:	48 8b 7d f8 	movq	-8(%rbp), %rdi
100001180:	48 8b 45 f8 	movq	-8(%rbp), %rax
100001184:	48 8b 08 	movq	(%rax), %rcx
100001187:	48 8b 49 e8 	movq	-24(%rcx), %rcx
10000118b:	48 01 c8 	addq	%rcx, %rax
10000118e:	48 89 7d f0 	movq	%rdi, -16(%rbp)
100001192:	48 89 c7 	movq	%rax, %rdi
100001195:	be 0a 00 00 00 	movl	$10, %esi
10000119a:	e8 f1 26 00 00 	callq	9969 <__ZNKSt3__19basic_iosIcNS_11char_traitsIcEEE5widenEc>
10000119f:	48 8b 7d f0 	movq	-16(%rbp), %rdi
1000011a3:	0f be f0 	movsbl	%al, %esi
1000011a6:	e8 69 28 00 00 	callq	10345 <dyld_stub_binder+0x100003a14>
1000011ab:	48 8b 7d f8 	movq	-8(%rbp), %rdi
1000011af:	48 89 45 e8 	movq	%rax, -24(%rbp)
1000011b3:	e8 62 28 00 00 	callq	10338 <dyld_stub_binder+0x100003a1a>
1000011b8:	48 8b 4d f8 	movq	-8(%rbp), %rcx
1000011bc:	48 89 45 e0 	movq	%rax, -32(%rbp)
1000011c0:	48 89 c8 	movq	%rcx, %rax
1000011c3:	48 83 c4 20 	addq	$32, %rsp
1000011c7:	5d 	popq	%rbp
1000011c8:	c3 	retq
1000011c9:	0f 1f 80 00 00 00 00 	nopl	(%rax)

__ZNSt3__16vectorINS_12basic_stringIcNS_11char_traitsIcEENS_9allocatorIcEEEENS4_IS6_EEEC2Ev:
1000011d0:	55 	pushq	%rbp
1000011d1:	48 89 e5 	movq	%rsp, %rbp
1000011d4:	48 83 ec 10 	subq	$16, %rsp
1000011d8:	48 89 7d f8 	movq	%rdi, -8(%rbp)
1000011dc:	48 8b 7d f8 	movq	-8(%rbp), %rdi
1000011e0:	e8 0b 00 00 00 	callq	11 <__ZNSt3__113__vector_baseINS_12basic_stringIcNS_11char_traitsIcEENS_9allocatorIcEEEENS4_IS6_EEEC2Ev>
1000011e5:	48 83 c4 10 	addq	$16, %rsp
1000011e9:	5d 	popq	%rbp
1000011ea:	c3 	retq
1000011eb:	0f 1f 44 00 00 	nopl	(%rax,%rax)

__ZNSt3__113__vector_baseINS_12basic_stringIcNS_11char_traitsIcEENS_9allocatorIcEEEENS4_IS6_EEEC2Ev:
1000011f0:	55 	pushq	%rbp
1000011f1:	48 89 e5 	movq	%rsp, %rbp
1000011f4:	48 83 ec 30 	subq	$48, %rsp
1000011f8:	48 89 7d f8 	movq	%rdi, -8(%rbp)
1000011fc:	48 8b 7d f8 	movq	-8(%rbp), %rdi
100001200:	48 89 f8 	movq	%rdi, %rax
100001203:	48 89 7d d8 	movq	%rdi, -40(%rbp)
100001207:	48 89 c7 	movq	%rax, %rdi
10000120a:	e8 61 00 00 00 	callq	97 <__ZNSt3__120__vector_base_commonILb1EEC2Ev>
10000120f:	e8 6c 00 00 00 	callq	108 <__ZNSt3__1L15__get_nullptr_tEv>
100001214:	48 89 45 f0 	movq	%rax, -16(%rbp)
100001218:	48 8d 7d f0 	leaq	-16(%rbp), %rdi
10000121c:	e8 8f 00 00 00 	callq	143 <__ZNKSt3__19nullptr_tcvPT_INS_12basic_stringIcNS_11char_traitsIcEENS_9allocatorIcEEEEEEv>
100001221:	48 8b 7d d8 	movq	-40(%rbp), %rdi
100001225:	48 89 07 	movq	%rax, (%rdi)
100001228:	e8 53 00 00 00 	callq	83 <__ZNSt3__1L15__get_nullptr_tEv>
10000122d:	48 89 45 e8 	movq	%rax, -24(%rbp)
100001231:	48 8d 7d e8 	leaq	-24(%rbp), %rdi
100001235:	e8 76 00 00 00 	callq	118 <__ZNKSt3__19nullptr_tcvPT_INS_12basic_stringIcNS_11char_traitsIcEENS_9allocatorIcEEEEEEv>
10000123a:	48 8b 7d d8 	movq	-40(%rbp), %rdi
10000123e:	48 89 47 08 	movq	%rax, 8(%rdi)
100001242:	48 83 c7 10 	addq	$16, %rdi
100001246:	48 89 7d d0 	movq	%rdi, -48(%rbp)
10000124a:	e8 31 00 00 00 	callq	49 <__ZNSt3__1L15__get_nullptr_tEv>
10000124f:	48 89 45 e0 	movq	%rax, -32(%rbp)
100001253:	48 8d 7d e0 	leaq	-32(%rbp), %rdi
100001257:	e8 54 00 00 00 	callq	84 <__ZNKSt3__19nullptr_tcvPT_INS_12basic_stringIcNS_11char_traitsIcEENS_9allocatorIcEEEEEEv>
10000125c:	48 8b 7d d0 	movq	-48(%rbp), %rdi
100001260:	48 89 c6 	movq	%rax, %rsi
100001263:	e8 58 00 00 00 	callq	88 <__ZNSt3__117__compressed_pairIPNS_12basic_stringIcNS_11char_traitsIcEENS_9allocatorIcEEEENS4_IS6_EEEC1ES7_>
100001268:	48 83 c4 30 	addq	$48, %rsp
10000126c:	5d 	popq	%rbp
10000126d:	c3 	retq
10000126e:	66 90 	nop

__ZNSt3__120__vector_base_commonILb1EEC2Ev:
100001270:	55 	pushq	%rbp
100001271:	48 89 e5 	movq	%rsp, %rbp
100001274:	48 89 7d f8 	movq	%rdi, -8(%rbp)
100001278:	5d 	popq	%rbp
100001279:	c3 	retq
10000127a:	66 0f 1f 44 00 00 	nopw	(%rax,%rax)

__ZNSt3__1L15__get_nullptr_tEv:
100001280:	55 	pushq	%rbp
100001281:	48 89 e5 	movq	%rsp, %rbp
100001284:	48 83 ec 10 	subq	$16, %rsp
100001288:	48 8d 7d f8 	leaq	-8(%rbp), %rdi
10000128c:	48 c7 c6 ff ff ff ff 	movq	$-1, %rsi
100001293:	e8 58 00 00 00 	callq	88 <__ZNSt3__19nullptr_tC1EMNS0_5__natEi>
100001298:	48 8b 45 f8 	movq	-8(%rbp), %rax
10000129c:	48 83 c4 10 	addq	$16, %rsp
1000012a0:	5d 	popq	%rbp
1000012a1:	c3 	retq
1000012a2:	66 2e 0f 1f 84 00 00 00 00 00 	nopw	%cs:(%rax,%rax)
1000012ac:	0f 1f 40 00 	nopl	(%rax)

__ZNKSt3__19nullptr_tcvPT_INS_12basic_stringIcNS_11char_traitsIcEENS_9allocatorIcEEEEEEv:
1000012b0:	55 	pushq	%rbp
1000012b1:	48 89 e5 	movq	%rsp, %rbp
1000012b4:	31 c0 	xorl	%eax, %eax
1000012b6:	48 89 7d f8 	movq	%rdi, -8(%rbp)
1000012ba:	5d 	popq	%rbp
1000012bb:	c3 	retq
1000012bc:	0f 1f 40 00 	nopl	(%rax)

__ZNSt3__117__compressed_pairIPNS_12basic_stringIcNS_11char_traitsIcEENS_9allocatorIcEEEENS4_IS6_EEEC1ES7_:
1000012c0:	55 	pushq	%rbp
1000012c1:	48 89 e5 	movq	%rsp, %rbp
1000012c4:	48 83 ec 10 	subq	$16, %rsp
1000012c8:	48 89 7d f8 	movq	%rdi, -8(%rbp)
1000012cc:	48 89 75 f0 	movq	%rsi, -16(%rbp)
1000012d0:	48 8b 7d f8 	movq	-8(%rbp), %rdi
1000012d4:	48 8b 75 f0 	movq	-16(%rbp), %rsi
1000012d8:	e8 63 00 00 00 	callq	99 <__ZNSt3__117__compressed_pairIPNS_12basic_stringIcNS_11char_traitsIcEENS_9allocatorIcEEEENS4_IS6_EEEC2ES7_>
1000012dd:	48 83 c4 10 	addq	$16, %rsp
1000012e1:	5d 	popq	%rbp
1000012e2:	c3 	retq
1000012e3:	66 2e 0f 1f 84 00 00 00 00 00 	nopw	%cs:(%rax,%rax)
1000012ed:	0f 1f 00 	nopl	(%rax)

__ZNSt3__19nullptr_tC1EMNS0_5__natEi:
1000012f0:	55 	pushq	%rbp
1000012f1:	48 89 e5 	movq	%rsp, %rbp
1000012f4:	48 83 ec 10 	subq	$16, %rsp
1000012f8:	48 89 7d f8 	movq	%rdi, -8(%rbp)
1000012fc:	48 89 75 f0 	movq	%rsi, -16(%rbp)
100001300:	48 8b 7d f8 	movq	-8(%rbp), %rdi
100001304:	48 8b 75 f0 	movq	-16(%rbp), %rsi
100001308:	e8 13 00 00 00 	callq	19 <__ZNSt3__19nullptr_tC2EMNS0_5__natEi>
10000130d:	48 83 c4 10 	addq	$16, %rsp
100001311:	5d 	popq	%rbp
100001312:	c3 	retq
100001313:	66 2e 0f 1f 84 00 00 00 00 00 	nopw	%cs:(%rax,%rax)
10000131d:	0f 1f 00 	nopl	(%rax)

__ZNSt3__19nullptr_tC2EMNS0_5__natEi:
100001320:	55 	pushq	%rbp
100001321:	48 89 e5 	movq	%rsp, %rbp
100001324:	48 89 7d f8 	movq	%rdi, -8(%rbp)
100001328:	48 89 75 f0 	movq	%rsi, -16(%rbp)
10000132c:	48 8b 75 f8 	movq	-8(%rbp), %rsi
100001330:	48 c7 06 00 00 00 00 	movq	$0, (%rsi)
100001337:	5d 	popq	%rbp
100001338:	c3 	retq
100001339:	0f 1f 80 00 00 00 00 	nopl	(%rax)

__ZNSt3__117__compressed_pairIPNS_12basic_stringIcNS_11char_traitsIcEENS_9allocatorIcEEEENS4_IS6_EEEC2ES7_:
100001340:	55 	pushq	%rbp
100001341:	48 89 e5 	movq	%rsp, %rbp
100001344:	48 83 ec 20 	subq	$32, %rsp
100001348:	48 89 7d f8 	movq	%rdi, -8(%rbp)
10000134c:	48 89 75 f0 	movq	%rsi, -16(%rbp)
100001350:	48 8b 75 f8 	movq	-8(%rbp), %rsi
100001354:	48 89 f7 	movq	%rsi, %rdi
100001357:	48 8d 45 f0 	leaq	-16(%rbp), %rax
10000135b:	48 89 7d e8 	movq	%rdi, -24(%rbp)
10000135f:	48 89 c7 	movq	%rax, %rdi
100001362:	48 89 75 e0 	movq	%rsi, -32(%rbp)
100001366:	e8 25 00 00 00 	callq	37 <__ZNSt3__1L7forwardIPNS_12basic_stringIcNS_11char_traitsIcEENS_9allocatorIcEEEEEERT_RNS_16remove_referenceIS8_E4typeE>
10000136b:	48 8b 30 	movq	(%rax), %rsi
10000136e:	48 8b 7d e8 	movq	-24(%rbp), %rdi
100001372:	e8 29 00 00 00 	callq	41 <__ZNSt3__122__compressed_pair_elemIPNS_12basic_stringIcNS_11char_traitsIcEENS_9allocatorIcEEEELi0ELb0EEC2ES7_>
100001377:	48 8b 45 e0 	movq	-32(%rbp), %rax
10000137b:	48 89 c7 	movq	%rax, %rdi
10000137e:	e8 5d 00 00 00 	callq	93 <__ZNSt3__122__compressed_pair_elemINS_9allocatorINS_12basic_stringIcNS_11char_traitsIcEENS1_IcEEEEEELi1ELb1EEC2Ev>
100001383:	48 83 c4 20 	addq	$32, %rsp
100001387:	5d 	popq	%rbp
100001388:	c3 	retq
100001389:	0f 1f 80 00 00 00 00 	nopl	(%rax)

__ZNSt3__1L7forwardIPNS_12basic_stringIcNS_11char_traitsIcEENS_9allocatorIcEEEEEERT_RNS_16remove_referenceIS8_E4typeE:
100001390:	55 	pushq	%rbp
100001391:	48 89 e5 	movq	%rsp, %rbp
100001394:	48 89 7d f8 	movq	%rdi, -8(%rbp)
100001398:	48 8b 45 f8 	movq	-8(%rbp), %rax
10000139c:	5d 	popq	%rbp
10000139d:	c3 	retq
10000139e:	66 90 	nop

__ZNSt3__122__compressed_pair_elemIPNS_12basic_stringIcNS_11char_traitsIcEENS_9allocatorIcEEEELi0ELb0EEC2ES7_:
1000013a0:	55 	pushq	%rbp
1000013a1:	48 89 e5 	movq	%rsp, %rbp
1000013a4:	48 83 ec 20 	subq	$32, %rsp
1000013a8:	48 89 7d f8 	movq	%rdi, -8(%rbp)
1000013ac:	48 89 75 f0 	movq	%rsi, -16(%rbp)
1000013b0:	48 8b 75 f8 	movq	-8(%rbp), %rsi
1000013b4:	48 8d 7d f0 	leaq	-16(%rbp), %rdi
1000013b8:	48 89 75 e8 	movq	%rsi, -24(%rbp)
1000013bc:	e8 cf ff ff ff 	callq	-49 <__ZNSt3__1L7forwardIPNS_12basic_stringIcNS_11char_traitsIcEENS_9allocatorIcEEEEEERT_RNS_16remove_referenceIS8_E4typeE>
1000013c1:	48 8b 00 	movq	(%rax), %rax
1000013c4:	48 8b 75 e8 	movq	-24(%rbp), %rsi
1000013c8:	48 89 06 	movq	%rax, (%rsi)
1000013cb:	48 83 c4 20 	addq	$32, %rsp
1000013cf:	5d 	popq	%rbp
1000013d0:	c3 	retq
1000013d1:	66 2e 0f 1f 84 00 00 00 00 00 	nopw	%cs:(%rax,%rax)
1000013db:	0f 1f 44 00 00 	nopl	(%rax,%rax)

__ZNSt3__122__compressed_pair_elemINS_9allocatorINS_12basic_stringIcNS_11char_traitsIcEENS1_IcEEEEEELi1ELb1EEC2Ev:
1000013e0:	55 	pushq	%rbp
1000013e1:	48 89 e5 	movq	%rsp, %rbp
1000013e4:	48 83 ec 10 	subq	$16, %rsp
1000013e8:	48 89 7d f8 	movq	%rdi, -8(%rbp)
1000013ec:	48 8b 7d f8 	movq	-8(%rbp), %rdi
1000013f0:	e8 0b 00 00 00 	callq	11 <__ZNSt3__19allocatorINS_12basic_stringIcNS_11char_traitsIcEENS0_IcEEEEEC2Ev>
1000013f5:	48 83 c4 10 	addq	$16, %rsp
1000013f9:	5d 	popq	%rbp
1000013fa:	c3 	retq
1000013fb:	0f 1f 44 00 00 	nopl	(%rax,%rax)

__ZNSt3__19allocatorINS_12basic_stringIcNS_11char_traitsIcEENS0_IcEEEEEC2Ev:
100001400:	55 	pushq	%rbp
100001401:	48 89 e5 	movq	%rsp, %rbp
100001404:	48 89 7d f8 	movq	%rdi, -8(%rbp)
100001408:	5d 	popq	%rbp
100001409:	c3 	retq
10000140a:	66 0f 1f 44 00 00 	nopw	(%rax,%rax)

__ZNSt3__16vectorINS_12basic_stringIcNS_11char_traitsIcEENS_9allocatorIcEEEENS4_IS6_EEED2Ev:
100001410:	55 	pushq	%rbp
100001411:	48 89 e5 	movq	%rsp, %rbp
100001414:	48 83 ec 30 	subq	$48, %rsp
100001418:	48 89 7d f8 	movq	%rdi, -8(%rbp)
10000141c:	48 8b 7d f8 	movq	-8(%rbp), %rdi
100001420:	48 89 7d e0 	movq	%rdi, -32(%rbp)
100001424:	e8 57 00 00 00 	callq	87 <__ZNKSt3__16vectorINS_12basic_stringIcNS_11char_traitsIcEENS_9allocatorIcEEEENS4_IS6_EEE17__annotate_deleteEv>
100001429:	e9 00 00 00 00 	jmp	0 <__ZNSt3__16vectorINS_12basic_stringIcNS_11char_traitsIcEENS_9allocatorIcEEEENS4_IS6_EEED2Ev+0x1e>
10000142e:	48 8b 45 e0 	movq	-32(%rbp), %rax
100001432:	48 89 c7 	movq	%rax, %rdi
100001435:	e8 06 01 00 00 	callq	262 <__ZNSt3__113__vector_baseINS_12basic_stringIcNS_11char_traitsIcEENS_9allocatorIcEEEENS4_IS6_EEED2Ev>
10000143a:	48 83 c4 30 	addq	$48, %rsp
10000143e:	5d 	popq	%rbp
10000143f:	c3 	retq
100001440:	89 d1 	movl	%edx, %ecx
100001442:	48 89 45 f0 	movq	%rax, -16(%rbp)
100001446:	89 4d ec 	movl	%ecx, -20(%rbp)
100001449:	48 8b 7d e0 	movq	-32(%rbp), %rdi
10000144d:	e8 ee 00 00 00 	callq	238 <__ZNSt3__113__vector_baseINS_12basic_stringIcNS_11char_traitsIcEENS_9allocatorIcEEEENS4_IS6_EEED2Ev>
100001452:	e9 00 00 00 00 	jmp	0 <__ZNSt3__16vectorINS_12basic_stringIcNS_11char_traitsIcEENS_9allocatorIcEEEENS4_IS6_EEED2Ev+0x47>
100001457:	e9 00 00 00 00 	jmp	0 <__ZNSt3__16vectorINS_12basic_stringIcNS_11char_traitsIcEENS_9allocatorIcEEEENS4_IS6_EEED2Ev+0x4c>
10000145c:	48 8b 7d f0 	movq	-16(%rbp), %rdi
100001460:	e8 4f 25 00 00 	callq	9551 <dyld_stub_binder+0x1000039b4>
100001465:	0f 0b 	ud2
100001467:	48 89 c7 	movq	%rax, %rdi
10000146a:	48 89 55 d8 	movq	%rdx, -40(%rbp)
10000146e:	e8 7d f9 ff ff 	callq	-1667 <___clang_call_terminate>
100001473:	66 2e 0f 1f 84 00 00 00 00 00 	nopw	%cs:(%rax,%rax)
10000147d:	0f 1f 00 	nopl	(%rax)

__ZNKSt3__16vectorINS_12basic_stringIcNS_11char_traitsIcEENS_9allocatorIcEEEENS4_IS6_EEE17__annotate_deleteEv:
100001480:	55 	pushq	%rbp
100001481:	48 89 e5 	movq	%rsp, %rbp
100001484:	48 83 ec 50 	subq	$80, %rsp
100001488:	48 89 7d f8 	movq	%rdi, -8(%rbp)
10000148c:	48 8b 7d f8 	movq	-8(%rbp), %rdi
100001490:	48 89 7d f0 	movq	%rdi, -16(%rbp)
100001494:	e8 47 01 00 00 	callq	327 <__ZNKSt3__16vectorINS_12basic_stringIcNS_11char_traitsIcEENS_9allocatorIcEEEENS4_IS6_EEE4dataEv>
100001499:	48 8b 7d f0 	movq	-16(%rbp), %rdi
10000149d:	48 89 45 e8 	movq	%rax, -24(%rbp)
1000014a1:	e8 3a 01 00 00 	callq	314 <__ZNKSt3__16vectorINS_12basic_stringIcNS_11char_traitsIcEENS_9allocatorIcEEEENS4_IS6_EEE4dataEv>
1000014a6:	48 8b 7d f0 	movq	-16(%rbp), %rdi
1000014aa:	48 89 45 e0 	movq	%rax, -32(%rbp)
1000014ae:	e8 4d 01 00 00 	callq	333 <__ZNKSt3__16vectorINS_12basic_stringIcNS_11char_traitsIcEENS_9allocatorIcEEEENS4_IS6_EEE8capacityEv>
1000014b3:	48 6b c0 18 	imulq	$24, %rax, %rax
1000014b7:	48 8b 7d e0 	movq	-32(%rbp), %rdi
1000014bb:	48 01 c7 	addq	%rax, %rdi
1000014be:	48 8b 45 f0 	movq	-16(%rbp), %rax
1000014c2:	48 89 7d d8 	movq	%rdi, -40(%rbp)
1000014c6:	48 89 c7 	movq	%rax, %rdi
1000014c9:	e8 12 01 00 00 	callq	274 <__ZNKSt3__16vectorINS_12basic_stringIcNS_11char_traitsIcEENS_9allocatorIcEEEENS4_IS6_EEE4dataEv>
1000014ce:	48 8b 7d f0 	movq	-16(%rbp), %rdi
1000014d2:	48 89 45 d0 	movq	%rax, -48(%rbp)
1000014d6:	e8 45 f9 ff ff 	callq	-1723 <__ZNKSt3__16vectorINS_12basic_stringIcNS_11char_traitsIcEENS_9allocatorIcEEEENS4_IS6_EEE4sizeEv>
1000014db:	48 6b c0 18 	imulq	$24, %rax, %rax
1000014df:	48 8b 7d d0 	movq	-48(%rbp), %rdi
1000014e3:	48 01 c7 	addq	%rax, %rdi
1000014e6:	48 8b 45 f0 	movq	-16(%rbp), %rax
1000014ea:	48 89 7d c8 	movq	%rdi, -56(%rbp)
1000014ee:	48 89 c7 	movq	%rax, %rdi
1000014f1:	e8 ea 00 00 00 	callq	234 <__ZNKSt3__16vectorINS_12basic_stringIcNS_11char_traitsIcEENS_9allocatorIcEEEENS4_IS6_EEE4dataEv>
1000014f6:	48 8b 7d f0 	movq	-16(%rbp), %rdi
1000014fa:	48 89 45 c0 	movq	%rax, -64(%rbp)
1000014fe:	e8 fd 00 00 00 	callq	253 <__ZNKSt3__16vectorINS_12basic_stringIcNS_11char_traitsIcEENS_9allocatorIcEEEENS4_IS6_EEE8capacityEv>
100001503:	48 6b c0 18 	imulq	$24, %rax, %rax
100001507:	48 8b 7d c0 	movq	-64(%rbp), %rdi
10000150b:	48 01 c7 	addq	%rax, %rdi
10000150e:	48 8b 45 f0 	movq	-16(%rbp), %rax
100001512:	48 89 7d b8 	movq	%rdi, -72(%rbp)
100001516:	48 89 c7 	movq	%rax, %rdi
100001519:	48 8b 75 e8 	movq	-24(%rbp), %rsi
10000151d:	48 8b 55 d8 	movq	-40(%rbp), %rdx
100001521:	48 8b 4d c8 	movq	-56(%rbp), %rcx
100001525:	4c 8b 45 b8 	movq	-72(%rbp), %r8
100001529:	e8 92 00 00 00 	callq	146 <__ZNKSt3__16vectorINS_12basic_stringIcNS_11char_traitsIcEENS_9allocatorIcEEEENS4_IS6_EEE31__annotate_contiguous_containerEPKvSA_SA_SA_>
10000152e:	48 83 c4 50 	addq	$80, %rsp
100001532:	5d 	popq	%rbp
100001533:	c3 	retq
100001534:	66 2e 0f 1f 84 00 00 00 00 00 	nopw	%cs:(%rax,%rax)
10000153e:	66 90 	nop

__ZNSt3__113__vector_baseINS_12basic_stringIcNS_11char_traitsIcEENS_9allocatorIcEEEENS4_IS6_EEED2Ev:
100001540:	55 	pushq	%rbp
100001541:	48 89 e5 	movq	%rsp, %rbp
100001544:	48 83 ec 30 	subq	$48, %rsp
100001548:	48 89 7d f8 	movq	%rdi, -8(%rbp)
10000154c:	48 8b 7d f8 	movq	-8(%rbp), %rdi
100001550:	48 8b 07 	movq	(%rdi), %rax
100001553:	48 89 7d e8 	movq	%rdi, -24(%rbp)
100001557:	48 89 45 e0 	movq	%rax, -32(%rbp)
10000155b:	e8 20 fd ff ff 	callq	-736 <__ZNSt3__1L15__get_nullptr_tEv>
100001560:	48 89 45 f0 	movq	%rax, -16(%rbp)
100001564:	48 8d 7d f0 	leaq	-16(%rbp), %rdi
100001568:	e8 43 fd ff ff 	callq	-701 <__ZNKSt3__19nullptr_tcvPT_INS_12basic_stringIcNS_11char_traitsIcEENS_9allocatorIcEEEEEEv>
10000156d:	48 8b 7d e0 	movq	-32(%rbp), %rdi
100001571:	48 39 c7 	cmpq	%rax, %rdi
100001574:	0f 84 36 00 00 00 	je	54 <__ZNSt3__113__vector_baseINS_12basic_stringIcNS_11char_traitsIcEENS_9allocatorIcEEEENS4_IS6_EEED2Ev+0x70>
10000157a:	48 8b 7d e8 	movq	-24(%rbp), %rdi
10000157e:	e8 3d 01 00 00 	callq	317 <__ZNSt3__113__vector_baseINS_12basic_stringIcNS_11char_traitsIcEENS_9allocatorIcEEEENS4_IS6_EEE5clearEv>
100001583:	48 8b 7d e8 	movq	-24(%rbp), %rdi
100001587:	e8 84 01 00 00 	callq	388 <__ZNSt3__113__vector_baseINS_12basic_stringIcNS_11char_traitsIcEENS_9allocatorIcEEEENS4_IS6_EEE7__allocEv>
10000158c:	48 8b 7d e8 	movq	-24(%rbp), %rdi
100001590:	48 8b 37 	movq	(%rdi), %rsi
100001593:	48 89 45 d8 	movq	%rax, -40(%rbp)
100001597:	48 89 75 d0 	movq	%rsi, -48(%rbp)
10000159b:	e8 90 00 00 00 	callq	144 <__ZNKSt3__113__vector_baseINS_12basic_stringIcNS_11char_traitsIcEENS_9allocatorIcEEEENS4_IS6_EEE8capacityEv>
1000015a0:	48 8b 7d d8 	movq	-40(%rbp), %rdi
1000015a4:	48 8b 75 d0 	movq	-48(%rbp), %rsi
1000015a8:	48 89 c2 	movq	%rax, %rdx
1000015ab:	e8 30 01 00 00 	callq	304 <__ZNSt3__116allocator_traitsINS_9allocatorINS_12basic_stringIcNS_11char_traitsIcEENS1_IcEEEEEEE10deallocateERS7_PS6_m>
1000015b0:	48 83 c4 30 	addq	$48, %rsp
1000015b4:	5d 	popq	%rbp
1000015b5:	c3 	retq
1000015b6:	66 2e 0f 1f 84 00 00 00 00 00 	nopw	%cs:(%rax,%rax)

__ZNKSt3__16vectorINS_12basic_stringIcNS_11char_traitsIcEENS_9allocatorIcEEEENS4_IS6_EEE31__annotate_contiguous_containerEPKvSA_SA_SA_:
1000015c0:	55 	pushq	%rbp
1000015c1:	48 89 e5 	movq	%rsp, %rbp
1000015c4:	48 89 7d f8 	movq	%rdi, -8(%rbp)
1000015c8:	48 89 75 f0 	movq	%rsi, -16(%rbp)
1000015cc:	48 89 55 e8 	movq	%rdx, -24(%rbp)
1000015d0:	48 89 4d e0 	movq	%rcx, -32(%rbp)
1000015d4:	4c 89 45 d8 	movq	%r8, -40(%rbp)
1000015d8:	5d 	popq	%rbp
1000015d9:	c3 	retq
1000015da:	66 0f 1f 44 00 00 	nopw	(%rax,%rax)

__ZNKSt3__16vectorINS_12basic_stringIcNS_11char_traitsIcEENS_9allocatorIcEEEENS4_IS6_EEE4dataEv:
1000015e0:	55 	pushq	%rbp
1000015e1:	48 89 e5 	movq	%rsp, %rbp
1000015e4:	48 83 ec 10 	subq	$16, %rsp
1000015e8:	48 89 7d f8 	movq	%rdi, -8(%rbp)
1000015ec:	48 8b 7d f8 	movq	-8(%rbp), %rdi
1000015f0:	48 8b 3f 	movq	(%rdi), %rdi
1000015f3:	e8 28 00 00 00 	callq	40 <__ZNSt3__1L16__to_raw_pointerINS_12basic_stringIcNS_11char_traitsIcEENS_9allocatorIcEEEEEEPT_S8_>
1000015f8:	48 83 c4 10 	addq	$16, %rsp
1000015fc:	5d 	popq	%rbp
1000015fd:	c3 	retq
1000015fe:	66 90 	nop

__ZNKSt3__16vectorINS_12basic_stringIcNS_11char_traitsIcEENS_9allocatorIcEEEENS4_IS6_EEE8capacityEv:
100001600:	55 	pushq	%rbp
100001601:	48 89 e5 	movq	%rsp, %rbp
100001604:	48 83 ec 10 	subq	$16, %rsp
100001608:	48 89 7d f8 	movq	%rdi, -8(%rbp)
10000160c:	48 8b 7d f8 	movq	-8(%rbp), %rdi
100001610:	e8 1b 00 00 00 	callq	27 <__ZNKSt3__113__vector_baseINS_12basic_stringIcNS_11char_traitsIcEENS_9allocatorIcEEEENS4_IS6_EEE8capacityEv>
100001615:	48 83 c4 10 	addq	$16, %rsp
100001619:	5d 	popq	%rbp
10000161a:	c3 	retq
10000161b:	0f 1f 44 00 00 	nopl	(%rax,%rax)

__ZNSt3__1L16__to_raw_pointerINS_12basic_stringIcNS_11char_traitsIcEENS_9allocatorIcEEEEEEPT_S8_:
100001620:	55 	pushq	%rbp
100001621:	48 89 e5 	movq	%rsp, %rbp
100001624:	48 89 7d f8 	movq	%rdi, -8(%rbp)
100001628:	48 8b 45 f8 	movq	-8(%rbp), %rax
10000162c:	5d 	popq	%rbp
10000162d:	c3 	retq
10000162e:	66 90 	nop

__ZNKSt3__113__vector_baseINS_12basic_stringIcNS_11char_traitsIcEENS_9allocatorIcEEEENS4_IS6_EEE8capacityEv:
100001630:	55 	pushq	%rbp
100001631:	48 89 e5 	movq	%rsp, %rbp
100001634:	48 83 ec 10 	subq	$16, %rsp
100001638:	48 89 7d f8 	movq	%rdi, -8(%rbp)
10000163c:	48 8b 7d f8 	movq	-8(%rbp), %rdi
100001640:	48 89 7d f0 	movq	%rdi, -16(%rbp)
100001644:	e8 27 00 00 00 	callq	39 <__ZNKSt3__113__vector_baseINS_12basic_stringIcNS_11char_traitsIcEENS_9allocatorIcEEEENS4_IS6_EEE9__end_capEv>
100001649:	48 8b 00 	movq	(%rax), %rax
10000164c:	48 8b 7d f0 	movq	-16(%rbp), %rdi
100001650:	48 8b 0f 	movq	(%rdi), %rcx
100001653:	48 29 c8 	subq	%rcx, %rax
100001656:	48 99 	cqto
100001658:	b9 18 00 00 00 	movl	$24, %ecx
10000165d:	48 f7 f9 	idivq	%rcx
100001660:	48 83 c4 10 	addq	$16, %rsp
100001664:	5d 	popq	%rbp
100001665:	c3 	retq
100001666:	66 2e 0f 1f 84 00 00 00 00 00 	nopw	%cs:(%rax,%rax)

__ZNKSt3__113__vector_baseINS_12basic_stringIcNS_11char_traitsIcEENS_9allocatorIcEEEENS4_IS6_EEE9__end_capEv:
100001670:	55 	pushq	%rbp
100001671:	48 89 e5 	movq	%rsp, %rbp
100001674:	48 83 ec 10 	subq	$16, %rsp
100001678:	48 89 7d f8 	movq	%rdi, -8(%rbp)
10000167c:	48 8b 7d f8 	movq	-8(%rbp), %rdi
100001680:	48 83 c7 10 	addq	$16, %rdi
100001684:	e8 07 00 00 00 	callq	7 <__ZNKSt3__117__compressed_pairIPNS_12basic_stringIcNS_11char_traitsIcEENS_9allocatorIcEEEENS4_IS6_EEE5firstEv>
100001689:	48 83 c4 10 	addq	$16, %rsp
10000168d:	5d 	popq	%rbp
10000168e:	c3 	retq
10000168f:	90 	nop

__ZNKSt3__117__compressed_pairIPNS_12basic_stringIcNS_11char_traitsIcEENS_9allocatorIcEEEENS4_IS6_EEE5firstEv:
100001690:	55 	pushq	%rbp
100001691:	48 89 e5 	movq	%rsp, %rbp
100001694:	48 83 ec 10 	subq	$16, %rsp
100001698:	48 89 7d f8 	movq	%rdi, -8(%rbp)
10000169c:	48 8b 7d f8 	movq	-8(%rbp), %rdi
1000016a0:	e8 0b 00 00 00 	callq	11 <__ZNKSt3__122__compressed_pair_elemIPNS_12basic_stringIcNS_11char_traitsIcEENS_9allocatorIcEEEELi0ELb0EE5__getEv>
1000016a5:	48 83 c4 10 	addq	$16, %rsp
1000016a9:	5d 	popq	%rbp
1000016aa:	c3 	retq
1000016ab:	0f 1f 44 00 00 	nopl	(%rax,%rax)

__ZNKSt3__122__compressed_pair_elemIPNS_12basic_stringIcNS_11char_traitsIcEENS_9allocatorIcEEEELi0ELb0EE5__getEv:
1000016b0:	55 	pushq	%rbp
1000016b1:	48 89 e5 	movq	%rsp, %rbp
1000016b4:	48 89 7d f8 	movq	%rdi, -8(%rbp)
1000016b8:	48 8b 45 f8 	movq	-8(%rbp), %rax
1000016bc:	5d 	popq	%rbp
1000016bd:	c3 	retq
1000016be:	66 90 	nop

__ZNSt3__113__vector_baseINS_12basic_stringIcNS_11char_traitsIcEENS_9allocatorIcEEEENS4_IS6_EEE5clearEv:
1000016c0:	55 	pushq	%rbp
1000016c1:	48 89 e5 	movq	%rsp, %rbp
1000016c4:	48 83 ec 10 	subq	$16, %rsp
1000016c8:	48 89 7d f8 	movq	%rdi, -8(%rbp)
1000016cc:	48 8b 7d f8 	movq	-8(%rbp), %rdi
1000016d0:	48 8b 37 	movq	(%rdi), %rsi
1000016d3:	e8 58 00 00 00 	callq	88 <__ZNSt3__113__vector_baseINS_12basic_stringIcNS_11char_traitsIcEENS_9allocatorIcEEEENS4_IS6_EEE17__destruct_at_endEPS6_>
1000016d8:	48 83 c4 10 	addq	$16, %rsp
1000016dc:	5d 	popq	%rbp
1000016dd:	c3 	retq
1000016de:	66 90 	nop

__ZNSt3__116allocator_traitsINS_9allocatorINS_12basic_stringIcNS_11char_traitsIcEENS1_IcEEEEEEE10deallocateERS7_PS6_m:
1000016e0:	55 	pushq	%rbp
1000016e1:	48 89 e5 	movq	%rsp, %rbp
1000016e4:	48 83 ec 20 	subq	$32, %rsp
1000016e8:	48 89 7d f8 	movq	%rdi, -8(%rbp)
1000016ec:	48 89 75 f0 	movq	%rsi, -16(%rbp)
1000016f0:	48 89 55 e8 	movq	%rdx, -24(%rbp)
1000016f4:	48 8b 7d f8 	movq	-8(%rbp), %rdi
1000016f8:	48 8b 75 f0 	movq	-16(%rbp), %rsi
1000016fc:	48 8b 55 e8 	movq	-24(%rbp), %rdx
100001700:	e8 3b 01 00 00 	callq	315 <__ZNSt3__19allocatorINS_12basic_stringIcNS_11char_traitsIcEENS0_IcEEEEE10deallocateEPS5_m>
100001705:	48 83 c4 20 	addq	$32, %rsp
100001709:	5d 	popq	%rbp
10000170a:	c3 	retq
10000170b:	0f 1f 44 00 00 	nopl	(%rax,%rax)

__ZNSt3__113__vector_baseINS_12basic_stringIcNS_11char_traitsIcEENS_9allocatorIcEEEENS4_IS6_EEE7__allocEv:
100001710:	55 	pushq	%rbp
100001711:	48 89 e5 	movq	%rsp, %rbp
100001714:	48 83 ec 10 	subq	$16, %rsp
100001718:	48 89 7d f8 	movq	%rdi, -8(%rbp)
10000171c:	48 8b 7d f8 	movq	-8(%rbp), %rdi
100001720:	48 83 c7 10 	addq	$16, %rdi
100001724:	e8 07 02 00 00 	callq	519 <__ZNSt3__117__compressed_pairIPNS_12basic_stringIcNS_11char_traitsIcEENS_9allocatorIcEEEENS4_IS6_EEE6secondEv>
100001729:	48 83 c4 10 	addq	$16, %rsp
10000172d:	5d 	popq	%rbp
10000172e:	c3 	retq
10000172f:	90 	nop

__ZNSt3__113__vector_baseINS_12basic_stringIcNS_11char_traitsIcEENS_9allocatorIcEEEENS4_IS6_EEE17__destruct_at_endEPS6_:
100001730:	55 	pushq	%rbp
100001731:	48 89 e5 	movq	%rsp, %rbp
100001734:	48 83 ec 40 	subq	$64, %rsp
100001738:	48 89 7d f8 	movq	%rdi, -8(%rbp)
10000173c:	48 89 75 f0 	movq	%rsi, -16(%rbp)
100001740:	48 8b 75 f8 	movq	-8(%rbp), %rsi
100001744:	48 8b 7e 08 	movq	8(%rsi), %rdi
100001748:	48 89 7d e8 	movq	%rdi, -24(%rbp)
10000174c:	48 89 75 d0 	movq	%rsi, -48(%rbp)
100001750:	48 8b 45 f0 	movq	-16(%rbp), %rax
100001754:	48 3b 45 e8 	cmpq	-24(%rbp), %rax
100001758:	0f 84 46 00 00 00 	je	70 <__ZNSt3__113__vector_baseINS_12basic_stringIcNS_11char_traitsIcEENS_9allocatorIcEEEENS4_IS6_EEE17__destruct_at_endEPS6_+0x74>
10000175e:	48 8b 7d d0 	movq	-48(%rbp), %rdi
100001762:	e8 a9 ff ff ff 	callq	-87 <__ZNSt3__113__vector_baseINS_12basic_stringIcNS_11char_traitsIcEENS_9allocatorIcEEEENS4_IS6_EEE7__allocEv>
100001767:	48 8b 7d e8 	movq	-24(%rbp), %rdi
10000176b:	48 83 c7 e8 	addq	$-24, %rdi
10000176f:	48 89 7d e8 	movq	%rdi, -24(%rbp)
100001773:	48 89 45 c8 	movq	%rax, -56(%rbp)
100001777:	e8 a4 fe ff ff 	callq	-348 <__ZNSt3__1L16__to_raw_pointerINS_12basic_stringIcNS_11char_traitsIcEENS_9allocatorIcEEEEEEPT_S8_>
10000177c:	48 8b 7d c8 	movq	-56(%rbp), %rdi
100001780:	48 89 c6 	movq	%rax, %rsi
100001783:	e8 38 00 00 00 	callq	56 <__ZNSt3__116allocator_traitsINS_9allocatorINS_12basic_stringIcNS_11char_traitsIcEENS1_IcEEEEEEE7destroyIS6_EEvRS7_PT_>
100001788:	e9 00 00 00 00 	jmp	0 <__ZNSt3__113__vector_baseINS_12basic_stringIcNS_11char_traitsIcEENS_9allocatorIcEEEENS4_IS6_EEE17__destruct_at_endEPS6_+0x5d>
10000178d:	e9 be ff ff ff 	jmp	-66 <__ZNSt3__113__vector_baseINS_12basic_stringIcNS_11char_traitsIcEENS_9allocatorIcEEEENS4_IS6_EEE17__destruct_at_endEPS6_+0x20>
100001792:	89 d1 	movl	%edx, %ecx
100001794:	48 89 45 e0 	movq	%rax, -32(%rbp)
100001798:	89 4d dc 	movl	%ecx, -36(%rbp)
10000179b:	48 8b 7d e0 	movq	-32(%rbp), %rdi
10000179f:	e8 f4 22 00 00 	callq	8948 <dyld_stub_binder+0x100003a98>
1000017a4:	48 8b 45 f0 	movq	-16(%rbp), %rax
1000017a8:	48 8b 4d d0 	movq	-48(%rbp), %rcx
1000017ac:	48 89 41 08 	movq	%rax, 8(%rcx)
1000017b0:	48 83 c4 40 	addq	$64, %rsp
1000017b4:	5d 	popq	%rbp
1000017b5:	c3 	retq
1000017b6:	66 2e 0f 1f 84 00 00 00 00 00 	nopw	%cs:(%rax,%rax)

__ZNSt3__116allocator_traitsINS_9allocatorINS_12basic_stringIcNS_11char_traitsIcEENS1_IcEEEEEEE7destroyIS6_EEvRS7_PT_:
1000017c0:	55 	pushq	%rbp
1000017c1:	48 89 e5 	movq	%rsp, %rbp
1000017c4:	48 83 ec 20 	subq	$32, %rsp
1000017c8:	48 89 7d f8 	movq	%rdi, -8(%rbp)
1000017cc:	48 89 75 f0 	movq	%rsi, -16(%rbp)
1000017d0:	48 8b 7d f8 	movq	-8(%rbp), %rdi
1000017d4:	48 8b 75 f0 	movq	-16(%rbp), %rsi
1000017d8:	e8 13 00 00 00 	callq	19 <__ZNSt3__116allocator_traitsINS_9allocatorINS_12basic_stringIcNS_11char_traitsIcEENS1_IcEEEEEEE9__destroyIS6_EEvNS_17integral_constantIbLb1EEERS7_PT_>
1000017dd:	48 83 c4 20 	addq	$32, %rsp
1000017e1:	5d 	popq	%rbp
1000017e2:	c3 	retq
1000017e3:	66 2e 0f 1f 84 00 00 00 00 00 	nopw	%cs:(%rax,%rax)
1000017ed:	0f 1f 00 	nopl	(%rax)

__ZNSt3__116allocator_traitsINS_9allocatorINS_12basic_stringIcNS_11char_traitsIcEENS1_IcEEEEEEE9__destroyIS6_EEvNS_17integral_constantIbLb1EEERS7_PT_:
1000017f0:	55 	pushq	%rbp
1000017f1:	48 89 e5 	movq	%rsp, %rbp
1000017f4:	48 83 ec 20 	subq	$32, %rsp
1000017f8:	48 89 7d f0 	movq	%rdi, -16(%rbp)
1000017fc:	48 89 75 e8 	movq	%rsi, -24(%rbp)
100001800:	48 8b 7d f0 	movq	-16(%rbp), %rdi
100001804:	48 8b 75 e8 	movq	-24(%rbp), %rsi
100001808:	e8 13 00 00 00 	callq	19 <__ZNSt3__19allocatorINS_12basic_stringIcNS_11char_traitsIcEENS0_IcEEEEE7destroyEPS5_>
10000180d:	48 83 c4 20 	addq	$32, %rsp
100001811:	5d 	popq	%rbp
100001812:	c3 	retq
100001813:	66 2e 0f 1f 84 00 00 00 00 00 	nopw	%cs:(%rax,%rax)
10000181d:	0f 1f 00 	nopl	(%rax)

__ZNSt3__19allocatorINS_12basic_stringIcNS_11char_traitsIcEENS0_IcEEEEE7destroyEPS5_:
100001820:	55 	pushq	%rbp
100001821:	48 89 e5 	movq	%rsp, %rbp
100001824:	48 83 ec 10 	subq	$16, %rsp
100001828:	48 89 7d f8 	movq	%rdi, -8(%rbp)
10000182c:	48 89 75 f0 	movq	%rsi, -16(%rbp)
100001830:	48 8b 7d f0 	movq	-16(%rbp), %rdi
100001834:	e8 cf 21 00 00 	callq	8655 <dyld_stub_binder+0x100003a08>
100001839:	48 83 c4 10 	addq	$16, %rsp
10000183d:	5d 	popq	%rbp
10000183e:	c3 	retq
10000183f:	90 	nop

__ZNSt3__19allocatorINS_12basic_stringIcNS_11char_traitsIcEENS0_IcEEEEE10deallocateEPS5_m:
100001840:	55 	pushq	%rbp
100001841:	48 89 e5 	movq	%rsp, %rbp
100001844:	48 83 ec 30 	subq	$48, %rsp
100001848:	48 89 7d f8 	movq	%rdi, -8(%rbp)
10000184c:	48 89 75 f0 	movq	%rsi, -16(%rbp)
100001850:	48 89 55 e8 	movq	%rdx, -24(%rbp)
100001854:	48 8b 7d f0 	movq	-16(%rbp), %rdi
100001858:	48 8b 55 e8 	movq	-24(%rbp), %rdx
10000185c:	48 c1 e2 03 	shlq	$3, %rdx
100001860:	48 8d 34 52 	leaq	(%rdx,%rdx,2), %rsi
100001864:	ba 08 00 00 00 	movl	$8, %edx
100001869:	e8 22 00 00 00 	callq	34 <__ZNSt3__1L19__libcpp_deallocateEPvmm>
10000186e:	e9 00 00 00 00 	jmp	0 <__ZNSt3__19allocatorINS_12basic_stringIcNS_11char_traitsIcEENS0_IcEEEEE10deallocateEPS5_m+0x33>
100001873:	48 83 c4 30 	addq	$48, %rsp
100001877:	5d 	popq	%rbp
100001878:	c3 	retq
100001879:	89 d1 	movl	%edx, %ecx
10000187b:	48 89 45 e0 	movq	%rax, -32(%rbp)
10000187f:	89 4d dc 	movl	%ecx, -36(%rbp)
100001882:	48 8b 7d e0 	movq	-32(%rbp), %rdi
100001886:	e8 0d 22 00 00 	callq	8717 <dyld_stub_binder+0x100003a98>
10000188b:	0f 1f 44 00 00 	nopl	(%rax,%rax)

__ZNSt3__1L19__libcpp_deallocateEPvmm:
100001890:	55 	pushq	%rbp
100001891:	48 89 e5 	movq	%rsp, %rbp
100001894:	48 83 ec 20 	subq	$32, %rsp
100001898:	48 89 7d f8 	movq	%rdi, -8(%rbp)
10000189c:	48 89 75 f0 	movq	%rsi, -16(%rbp)
1000018a0:	48 89 55 e8 	movq	%rdx, -24(%rbp)
1000018a4:	48 8b 7d f8 	movq	-8(%rbp), %rdi
1000018a8:	48 8b 75 f0 	movq	-16(%rbp), %rsi
1000018ac:	48 8b 55 e8 	movq	-24(%rbp), %rdx
1000018b0:	e8 0b 00 00 00 	callq	11 <__ZNSt3__117_DeallocateCaller33__do_deallocate_handle_size_alignEPvmm>
1000018b5:	48 83 c4 20 	addq	$32, %rsp
1000018b9:	5d 	popq	%rbp
1000018ba:	c3 	retq
1000018bb:	0f 1f 44 00 00 	nopl	(%rax,%rax)

__ZNSt3__117_DeallocateCaller33__do_deallocate_handle_size_alignEPvmm:
1000018c0:	55 	pushq	%rbp
1000018c1:	48 89 e5 	movq	%rsp, %rbp
1000018c4:	48 83 ec 20 	subq	$32, %rsp
1000018c8:	48 89 7d f8 	movq	%rdi, -8(%rbp)
1000018cc:	48 89 75 f0 	movq	%rsi, -16(%rbp)
1000018d0:	48 89 55 e8 	movq	%rdx, -24(%rbp)
1000018d4:	48 8b 7d f8 	movq	-8(%rbp), %rdi
1000018d8:	48 8b 75 f0 	movq	-16(%rbp), %rsi
1000018dc:	e8 4b 21 00 00 	callq	8523 <dyld_stub_binder+0x100003a2c>
1000018e1:	48 83 c4 20 	addq	$32, %rsp
1000018e5:	5d 	popq	%rbp
1000018e6:	c3 	retq
1000018e7:	66 0f 1f 84 00 00 00 00 00 	nopw	(%rax,%rax)

__ZNSt3__117_DeallocateCaller27__do_deallocate_handle_sizeEPvm:
1000018f0:	55 	pushq	%rbp
1000018f1:	48 89 e5 	movq	%rsp, %rbp
1000018f4:	48 83 ec 10 	subq	$16, %rsp
1000018f8:	48 89 7d f8 	movq	%rdi, -8(%rbp)
1000018fc:	48 89 75 f0 	movq	%rsi, -16(%rbp)
100001900:	48 8b 7d f8 	movq	-8(%rbp), %rdi
100001904:	e8 29 21 00 00 	callq	8489 <dyld_stub_binder+0x100003a32>
100001909:	48 83 c4 10 	addq	$16, %rsp
10000190d:	5d 	popq	%rbp
10000190e:	c3 	retq
10000190f:	90 	nop

__ZNSt3__117_DeallocateCaller9__do_callEPv:
100001910:	55 	pushq	%rbp
100001911:	48 89 e5 	movq	%rsp, %rbp
100001914:	48 83 ec 10 	subq	$16, %rsp
100001918:	48 89 7d f8 	movq	%rdi, -8(%rbp)
10000191c:	48 8b 7d f8 	movq	-8(%rbp), %rdi
100001920:	e8 5b 21 00 00 	callq	8539 <dyld_stub_binder+0x100003a80>
100001925:	48 83 c4 10 	addq	$16, %rsp
100001929:	5d 	popq	%rbp
10000192a:	c3 	retq
10000192b:	0f 1f 44 00 00 	nopl	(%rax,%rax)

__ZNSt3__117__compressed_pairIPNS_12basic_stringIcNS_11char_traitsIcEENS_9allocatorIcEEEENS4_IS6_EEE6secondEv:
100001930:	55 	pushq	%rbp
100001931:	48 89 e5 	movq	%rsp, %rbp
100001934:	48 83 ec 10 	subq	$16, %rsp
100001938:	48 89 7d f8 	movq	%rdi, -8(%rbp)
10000193c:	48 8b 7d f8 	movq	-8(%rbp), %rdi
100001940:	e8 0b 00 00 00 	callq	11 <__ZNSt3__122__compressed_pair_elemINS_9allocatorINS_12basic_stringIcNS_11char_traitsIcEENS1_IcEEEEEELi1ELb1EE5__getEv>
100001945:	48 83 c4 10 	addq	$16, %rsp
100001949:	5d 	popq	%rbp
10000194a:	c3 	retq
10000194b:	0f 1f 44 00 00 	nopl	(%rax,%rax)

__ZNSt3__122__compressed_pair_elemINS_9allocatorINS_12basic_stringIcNS_11char_traitsIcEENS1_IcEEEEEELi1ELb1EE5__getEv:
100001950:	55 	pushq	%rbp
100001951:	48 89 e5 	movq	%rsp, %rbp
100001954:	48 89 7d f8 	movq	%rdi, -8(%rbp)
100001958:	48 8b 7d f8 	movq	-8(%rbp), %rdi
10000195c:	48 89 f8 	movq	%rdi, %rax
10000195f:	5d 	popq	%rbp
100001960:	c3 	retq
100001961:	66 2e 0f 1f 84 00 00 00 00 00 	nopw	%cs:(%rax,%rax)
10000196b:	0f 1f 44 00 00 	nopl	(%rax,%rax)

__ZNSt3__113__vector_baseINS_12basic_stringIcNS_11char_traitsIcEENS_9allocatorIcEEEENS4_IS6_EEE9__end_capEv:
100001970:	55 	pushq	%rbp
100001971:	48 89 e5 	movq	%rsp, %rbp
100001974:	48 83 ec 10 	subq	$16, %rsp
100001978:	48 89 7d f8 	movq	%rdi, -8(%rbp)
10000197c:	48 8b 7d f8 	movq	-8(%rbp), %rdi
100001980:	48 83 c7 10 	addq	$16, %rdi
100001984:	e8 77 01 00 00 	callq	375 <__ZNSt3__117__compressed_pairIPNS_12basic_stringIcNS_11char_traitsIcEENS_9allocatorIcEEEENS4_IS6_EEE5firstEv>
100001989:	48 83 c4 10 	addq	$16, %rsp
10000198d:	5d 	popq	%rbp
10000198e:	c3 	retq
10000198f:	90 	nop

__ZNSt3__16vectorINS_12basic_stringIcNS_11char_traitsIcEENS_9allocatorIcEEEENS4_IS6_EEE24__RAII_IncreaseAnnotatorC1ERKS8_m:
100001990:	55 	pushq	%rbp
100001991:	48 89 e5 	movq	%rsp, %rbp
100001994:	48 83 ec 20 	subq	$32, %rsp
100001998:	48 89 7d f8 	movq	%rdi, -8(%rbp)
10000199c:	48 89 75 f0 	movq	%rsi, -16(%rbp)
1000019a0:	48 89 55 e8 	movq	%rdx, -24(%rbp)
1000019a4:	48 8b 7d f8 	movq	-8(%rbp), %rdi
1000019a8:	48 8b 75 f0 	movq	-16(%rbp), %rsi
1000019ac:	48 8b 55 e8 	movq	-24(%rbp), %rdx
1000019b0:	e8 7b 01 00 00 	callq	379 <__ZNSt3__16vectorINS_12basic_stringIcNS_11char_traitsIcEENS_9allocatorIcEEEENS4_IS6_EEE24__RAII_IncreaseAnnotatorC2ERKS8_m>
1000019b5:	48 83 c4 20 	addq	$32, %rsp
1000019b9:	5d 	popq	%rbp
1000019ba:	c3 	retq
1000019bb:	0f 1f 44 00 00 	nopl	(%rax,%rax)

__ZNSt3__116allocator_traitsINS_9allocatorINS_12basic_stringIcNS_11char_traitsIcEENS1_IcEEEEEEE9constructIS6_S6_EEvRS7_PT_RKT0_:
1000019c0:	55 	pushq	%rbp
1000019c1:	48 89 e5 	movq	%rsp, %rbp
1000019c4:	48 83 ec 30 	subq	$48, %rsp
1000019c8:	48 89 7d f8 	movq	%rdi, -8(%rbp)
1000019cc:	48 89 75 f0 	movq	%rsi, -16(%rbp)
1000019d0:	48 89 55 e8 	movq	%rdx, -24(%rbp)
1000019d4:	48 8b 7d f8 	movq	-8(%rbp), %rdi
1000019d8:	48 8b 75 f0 	movq	-16(%rbp), %rsi
1000019dc:	48 8b 55 e8 	movq	-24(%rbp), %rdx
1000019e0:	e8 6b 01 00 00 	callq	363 <__ZNSt3__116allocator_traitsINS_9allocatorINS_12basic_stringIcNS_11char_traitsIcEENS1_IcEEEEEEE11__constructIS6_S6_EEvNS_17integral_constantIbLb1EEERS7_PT_RKT0_>
1000019e5:	48 83 c4 30 	addq	$48, %rsp
1000019e9:	5d 	popq	%rbp
1000019ea:	c3 	retq
1000019eb:	0f 1f 44 00 00 	nopl	(%rax,%rax)

__ZNSt3__16vectorINS_12basic_stringIcNS_11char_traitsIcEENS_9allocatorIcEEEENS4_IS6_EEE24__RAII_IncreaseAnnotator6__doneEv:
1000019f0:	55 	pushq	%rbp
1000019f1:	48 89 e5 	movq	%rsp, %rbp
1000019f4:	48 89 7d f8 	movq	%rdi, -8(%rbp)
1000019f8:	5d 	popq	%rbp
1000019f9:	c3 	retq
1000019fa:	66 0f 1f 44 00 00 	nopw	(%rax,%rax)

__ZNSt3__16vectorINS_12basic_stringIcNS_11char_traitsIcEENS_9allocatorIcEEEENS4_IS6_EEE21__push_back_slow_pathIKS6_EEvRT_:
100001a00:	55 	pushq	%rbp
100001a01:	48 89 e5 	movq	%rsp, %rbp
100001a04:	48 81 ec 80 00 00 00 	subq	$128, %rsp
100001a0b:	48 89 7d f8 	movq	%rdi, -8(%rbp)
100001a0f:	48 89 75 f0 	movq	%rsi, -16(%rbp)
100001a13:	48 8b 75 f8 	movq	-8(%rbp), %rsi
100001a17:	48 89 f7 	movq	%rsi, %rdi
100001a1a:	48 89 75 a8 	movq	%rsi, -88(%rbp)
100001a1e:	e8 ed fc ff ff 	callq	-787 <__ZNSt3__113__vector_baseINS_12basic_stringIcNS_11char_traitsIcEENS_9allocatorIcEEEENS4_IS6_EEE7__allocEv>
100001a23:	48 89 45 e8 	movq	%rax, -24(%rbp)
100001a27:	48 8b 7d a8 	movq	-88(%rbp), %rdi
100001a2b:	e8 f0 f3 ff ff 	callq	-3088 <__ZNKSt3__16vectorINS_12basic_stringIcNS_11char_traitsIcEENS_9allocatorIcEEEENS4_IS6_EEE4sizeEv>
100001a30:	48 ff c0 	incq	%rax
100001a33:	48 8b 7d a8 	movq	-88(%rbp), %rdi
100001a37:	48 89 c6 	movq	%rax, %rsi
100001a3a:	e8 71 01 00 00 	callq	369 <__ZNKSt3__16vectorINS_12basic_stringIcNS_11char_traitsIcEENS_9allocatorIcEEEENS4_IS6_EEE11__recommendEm>
100001a3f:	48 8b 7d a8 	movq	-88(%rbp), %rdi
100001a43:	48 89 45 a0 	movq	%rax, -96(%rbp)
100001a47:	e8 d4 f3 ff ff 	callq	-3116 <__ZNKSt3__16vectorINS_12basic_stringIcNS_11char_traitsIcEENS_9allocatorIcEEEENS4_IS6_EEE4sizeEv>
100001a4c:	48 8b 4d e8 	movq	-24(%rbp), %rcx
100001a50:	48 8d 7d c0 	leaq	-64(%rbp), %rdi
100001a54:	48 8b 75 a0 	movq	-96(%rbp), %rsi
100001a58:	48 89 c2 	movq	%rax, %rdx
100001a5b:	e8 f0 01 00 00 	callq	496 <__ZNSt3__114__split_bufferINS_12basic_stringIcNS_11char_traitsIcEENS_9allocatorIcEEEERNS4_IS6_EEEC1EmmS8_>
100001a60:	48 8b 7d e8 	movq	-24(%rbp), %rdi
100001a64:	48 8b 45 d0 	movq	-48(%rbp), %rax
100001a68:	48 89 7d 98 	movq	%rdi, -104(%rbp)
100001a6c:	48 89 c7 	movq	%rax, %rdi
100001a6f:	e8 ac fb ff ff 	callq	-1108 <__ZNSt3__1L16__to_raw_pointerINS_12basic_stringIcNS_11char_traitsIcEENS_9allocatorIcEEEEEEPT_S8_>
100001a74:	48 8b 7d f0 	movq	-16(%rbp), %rdi
100001a78:	48 89 45 90 	movq	%rax, -112(%rbp)
100001a7c:	e8 0f 02 00 00 	callq	527 <__ZNSt3__1L7forwardIKNS_12basic_stringIcNS_11char_traitsIcEENS_9allocatorIcEEEEEERT_RNS_16remove_referenceIS8_E4typeE>
100001a81:	48 8b 7d 98 	movq	-104(%rbp), %rdi
100001a85:	48 8b 75 90 	movq	-112(%rbp), %rsi
100001a89:	48 89 c2 	movq	%rax, %rdx
100001a8c:	e8 2f ff ff ff 	callq	-209 <__ZNSt3__116allocator_traitsINS_9allocatorINS_12basic_stringIcNS_11char_traitsIcEENS1_IcEEEEEEE9constructIS6_S6_EEvRS7_PT_RKT0_>
100001a91:	e9 00 00 00 00 	jmp	0 <__ZNSt3__16vectorINS_12basic_stringIcNS_11char_traitsIcEENS_9allocatorIcEEEENS4_IS6_EEE21__push_back_slow_pathIKS6_EEvRT_+0x96>
100001a96:	48 8b 45 d0 	movq	-48(%rbp), %rax
100001a9a:	48 83 c0 18 	addq	$24, %rax
100001a9e:	48 89 45 d0 	movq	%rax, -48(%rbp)
100001aa2:	48 8d 75 c0 	leaq	-64(%rbp), %rsi
100001aa6:	48 8b 7d a8 	movq	-88(%rbp), %rdi
100001aaa:	e8 a7 1f 00 00 	callq	8103 <dyld_stub_binder+0x100003a56>
100001aaf:	e9 00 00 00 00 	jmp	0 <__ZNSt3__16vectorINS_12basic_stringIcNS_11char_traitsIcEENS_9allocatorIcEEEENS4_IS6_EEE21__push_back_slow_pathIKS6_EEvRT_+0xb4>
100001ab4:	48 8d 7d c0 	leaq	-64(%rbp), %rdi
100001ab8:	e8 c3 02 00 00 	callq	707 <__ZNSt3__114__split_bufferINS_12basic_stringIcNS_11char_traitsIcEENS_9allocatorIcEEEERNS4_IS6_EEED1Ev>
100001abd:	48 81 c4 80 00 00 00 	addq	$128, %rsp
100001ac4:	5d 	popq	%rbp
100001ac5:	c3 	retq
100001ac6:	89 d1 	movl	%edx, %ecx
100001ac8:	48 89 45 b8 	movq	%rax, -72(%rbp)
100001acc:	89 4d b4 	movl	%ecx, -76(%rbp)
100001acf:	48 8d 7d c0 	leaq	-64(%rbp), %rdi
100001ad3:	e8 a8 02 00 00 	callq	680 <__ZNSt3__114__split_bufferINS_12basic_stringIcNS_11char_traitsIcEENS_9allocatorIcEEEERNS4_IS6_EEED1Ev>
100001ad8:	e9 00 00 00 00 	jmp	0 <__ZNSt3__16vectorINS_12basic_stringIcNS_11char_traitsIcEENS_9allocatorIcEEEENS4_IS6_EEE21__push_back_slow_pathIKS6_EEvRT_+0xdd>
100001add:	e9 00 00 00 00 	jmp	0 <__ZNSt3__16vectorINS_12basic_stringIcNS_11char_traitsIcEENS_9allocatorIcEEEENS4_IS6_EEE21__push_back_slow_pathIKS6_EEvRT_+0xe2>
100001ae2:	48 8b 7d b8 	movq	-72(%rbp), %rdi
100001ae6:	e8 c9 1e 00 00 	callq	7881 <dyld_stub_binder+0x1000039b4>
100001aeb:	0f 0b 	ud2
100001aed:	48 89 c7 	movq	%rax, %rdi
100001af0:	48 89 55 88 	movq	%rdx, -120(%rbp)
100001af4:	e8 f7 f2 ff ff 	callq	-3337 <___clang_call_terminate>
100001af9:	0f 1f 80 00 00 00 00 	nopl	(%rax)

__ZNSt3__117__compressed_pairIPNS_12basic_stringIcNS_11char_traitsIcEENS_9allocatorIcEEEENS4_IS6_EEE5firstEv:
100001b00:	55 	pushq	%rbp
100001b01:	48 89 e5 	movq	%rsp, %rbp
100001b04:	48 83 ec 10 	subq	$16, %rsp
100001b08:	48 89 7d f8 	movq	%rdi, -8(%rbp)
100001b0c:	48 8b 7d f8 	movq	-8(%rbp), %rdi
100001b10:	e8 0b 00 00 00 	callq	11 <__ZNSt3__122__compressed_pair_elemIPNS_12basic_stringIcNS_11char_traitsIcEENS_9allocatorIcEEEELi0ELb0EE5__getEv>
100001b15:	48 83 c4 10 	addq	$16, %rsp
100001b19:	5d 	popq	%rbp
100001b1a:	c3 	retq
100001b1b:	0f 1f 44 00 00 	nopl	(%rax,%rax)

__ZNSt3__122__compressed_pair_elemIPNS_12basic_stringIcNS_11char_traitsIcEENS_9allocatorIcEEEELi0ELb0EE5__getEv:
100001b20:	55 	pushq	%rbp
100001b21:	48 89 e5 	movq	%rsp, %rbp
100001b24:	48 89 7d f8 	movq	%rdi, -8(%rbp)
100001b28:	48 8b 45 f8 	movq	-8(%rbp), %rax
100001b2c:	5d 	popq	%rbp
100001b2d:	c3 	retq
100001b2e:	66 90 	nop

__ZNSt3__16vectorINS_12basic_stringIcNS_11char_traitsIcEENS_9allocatorIcEEEENS4_IS6_EEE24__RAII_IncreaseAnnotatorC2ERKS8_m:
100001b30:	55 	pushq	%rbp
100001b31:	48 89 e5 	movq	%rsp, %rbp
100001b34:	48 89 7d f8 	movq	%rdi, -8(%rbp)
100001b38:	48 89 75 f0 	movq	%rsi, -16(%rbp)
100001b3c:	48 89 55 e8 	movq	%rdx, -24(%rbp)
100001b40:	5d 	popq	%rbp
100001b41:	c3 	retq
100001b42:	66 2e 0f 1f 84 00 00 00 00 00 	nopw	%cs:(%rax,%rax)
100001b4c:	0f 1f 40 00 	nopl	(%rax)

__ZNSt3__116allocator_traitsINS_9allocatorINS_12basic_stringIcNS_11char_traitsIcEENS1_IcEEEEEEE11__constructIS6_S6_EEvNS_17integral_constantIbLb1EEERS7_PT_RKT0_:
100001b50:	55 	pushq	%rbp
100001b51:	48 89 e5 	movq	%rsp, %rbp
100001b54:	48 83 ec 20 	subq	$32, %rsp
100001b58:	48 89 7d f0 	movq	%rdi, -16(%rbp)
100001b5c:	48 89 75 e8 	movq	%rsi, -24(%rbp)
100001b60:	48 89 55 e0 	movq	%rdx, -32(%rbp)
100001b64:	48 8b 7d f0 	movq	-16(%rbp), %rdi
100001b68:	48 8b 75 e8 	movq	-24(%rbp), %rsi
100001b6c:	48 8b 55 e0 	movq	-32(%rbp), %rdx
100001b70:	e8 0b 00 00 00 	callq	11 <__ZNSt3__19allocatorINS_12basic_stringIcNS_11char_traitsIcEENS0_IcEEEEE9constructIS5_EEvPS5_RKT_>
100001b75:	48 83 c4 20 	addq	$32, %rsp
100001b79:	5d 	popq	%rbp
100001b7a:	c3 	retq
100001b7b:	0f 1f 44 00 00 	nopl	(%rax,%rax)

__ZNSt3__19allocatorINS_12basic_stringIcNS_11char_traitsIcEENS0_IcEEEEE9constructIS5_EEvPS5_RKT_:
100001b80:	55 	pushq	%rbp
100001b81:	48 89 e5 	movq	%rsp, %rbp
100001b84:	48 83 ec 20 	subq	$32, %rsp
100001b88:	48 89 7d f8 	movq	%rdi, -8(%rbp)
100001b8c:	48 89 75 f0 	movq	%rsi, -16(%rbp)
100001b90:	48 89 55 e8 	movq	%rdx, -24(%rbp)
100001b94:	48 8b 55 f0 	movq	-16(%rbp), %rdx
100001b98:	48 8b 75 e8 	movq	-24(%rbp), %rsi
100001b9c:	48 89 d7 	movq	%rdx, %rdi
100001b9f:	e8 5e 1e 00 00 	callq	7774 <dyld_stub_binder+0x100003a02>
100001ba4:	48 83 c4 20 	addq	$32, %rsp
100001ba8:	5d 	popq	%rbp
100001ba9:	c3 	retq
100001baa:	66 0f 1f 44 00 00 	nopw	(%rax,%rax)

__ZNKSt3__16vectorINS_12basic_stringIcNS_11char_traitsIcEENS_9allocatorIcEEEENS4_IS6_EEE11__recommendEm:
100001bb0:	55 	pushq	%rbp
100001bb1:	48 89 e5 	movq	%rsp, %rbp
100001bb4:	48 83 ec 40 	subq	$64, %rsp
100001bb8:	48 89 7d f0 	movq	%rdi, -16(%rbp)
100001bbc:	48 89 75 e8 	movq	%rsi, -24(%rbp)
100001bc0:	48 8b 75 f0 	movq	-16(%rbp), %rsi
100001bc4:	48 89 f7 	movq	%rsi, %rdi
100001bc7:	48 89 75 c8 	movq	%rsi, -56(%rbp)
100001bcb:	e8 f6 1d 00 00 	callq	7670 <dyld_stub_binder+0x1000039c6>
100001bd0:	48 89 45 e0 	movq	%rax, -32(%rbp)
100001bd4:	48 8b 45 e8 	movq	-24(%rbp), %rax
100001bd8:	48 3b 45 e0 	cmpq	-32(%rbp), %rax
100001bdc:	0f 86 09 00 00 00 	jbe	9 <__ZNKSt3__16vectorINS_12basic_stringIcNS_11char_traitsIcEENS_9allocatorIcEEEENS4_IS6_EEE11__recommendEm+0x3b>
100001be2:	48 8b 7d c8 	movq	-56(%rbp), %rdi
100001be6:	e8 cf 1d 00 00 	callq	7631 <dyld_stub_binder+0x1000039ba>
100001beb:	48 8b 7d c8 	movq	-56(%rbp), %rdi
100001bef:	e8 0c fa ff ff 	callq	-1524 <__ZNKSt3__16vectorINS_12basic_stringIcNS_11char_traitsIcEENS_9allocatorIcEEEENS4_IS6_EEE8capacityEv>
100001bf4:	48 89 45 d8 	movq	%rax, -40(%rbp)
100001bf8:	48 8b 45 d8 	movq	-40(%rbp), %rax
100001bfc:	48 8b 7d e0 	movq	-32(%rbp), %rdi
100001c00:	48 c1 ef 01 	shrq	$1, %rdi
100001c04:	48 39 f8 	cmpq	%rdi, %rax
100001c07:	0f 82 0d 00 00 00 	jb	13 <__ZNKSt3__16vectorINS_12basic_stringIcNS_11char_traitsIcEENS_9allocatorIcEEEENS4_IS6_EEE11__recommendEm+0x6a>
100001c0d:	48 8b 45 e0 	movq	-32(%rbp), %rax
100001c11:	48 89 45 f8 	movq	%rax, -8(%rbp)
100001c15:	e9 20 00 00 00 	jmp	32 <__ZNKSt3__16vectorINS_12basic_stringIcNS_11char_traitsIcEENS_9allocatorIcEEEENS4_IS6_EEE11__recommendEm+0x8a>
100001c1a:	48 8b 45 d8 	movq	-40(%rbp), %rax
100001c1e:	48 c1 e0 01 	shlq	$1, %rax
100001c22:	48 89 45 d0 	movq	%rax, -48(%rbp)
100001c26:	48 8d 7d d0 	leaq	-48(%rbp), %rdi
100001c2a:	48 8d 75 e8 	leaq	-24(%rbp), %rsi
100001c2e:	e8 cd 01 00 00 	callq	461 <__ZNSt3__1L3maxImEERKT_S3_S3_>
100001c33:	48 8b 00 	movq	(%rax), %rax
100001c36:	48 89 45 f8 	movq	%rax, -8(%rbp)
100001c3a:	48 8b 45 f8 	movq	-8(%rbp), %rax
100001c3e:	48 83 c4 40 	addq	$64, %rsp
100001c42:	5d 	popq	%rbp
100001c43:	c3 	retq
100001c44:	66 2e 0f 1f 84 00 00 00 00 00 	nopw	%cs:(%rax,%rax)
100001c4e:	66 90 	nop

__ZNSt3__114__split_bufferINS_12basic_stringIcNS_11char_traitsIcEENS_9allocatorIcEEEERNS4_IS6_EEEC1EmmS8_:
100001c50:	55 	pushq	%rbp
100001c51:	48 89 e5 	movq	%rsp, %rbp
100001c54:	48 83 ec 20 	subq	$32, %rsp
100001c58:	48 89 7d f8 	movq	%rdi, -8(%rbp)
100001c5c:	48 89 75 f0 	movq	%rsi, -16(%rbp)
100001c60:	48 89 55 e8 	movq	%rdx, -24(%rbp)
100001c64:	48 89 4d e0 	movq	%rcx, -32(%rbp)
100001c68:	48 8b 7d f8 	movq	-8(%rbp), %rdi
100001c6c:	48 8b 75 f0 	movq	-16(%rbp), %rsi
100001c70:	48 8b 55 e8 	movq	-24(%rbp), %rdx
100001c74:	48 8b 4d e0 	movq	-32(%rbp), %rcx
100001c78:	e8 93 03 00 00 	callq	915 <__ZNSt3__114__split_bufferINS_12basic_stringIcNS_11char_traitsIcEENS_9allocatorIcEEEERNS4_IS6_EEEC2EmmS8_>
100001c7d:	48 83 c4 20 	addq	$32, %rsp
100001c81:	5d 	popq	%rbp
100001c82:	c3 	retq
100001c83:	66 2e 0f 1f 84 00 00 00 00 00 	nopw	%cs:(%rax,%rax)
100001c8d:	0f 1f 00 	nopl	(%rax)

__ZNSt3__1L7forwardIKNS_12basic_stringIcNS_11char_traitsIcEENS_9allocatorIcEEEEEERT_RNS_16remove_referenceIS8_E4typeE:
100001c90:	55 	pushq	%rbp
100001c91:	48 89 e5 	movq	%rsp, %rbp
100001c94:	48 89 7d f8 	movq	%rdi, -8(%rbp)
100001c98:	48 8b 45 f8 	movq	-8(%rbp), %rax
100001c9c:	5d 	popq	%rbp
100001c9d:	c3 	retq
100001c9e:	66 90 	nop

__ZNSt3__16vectorINS_12basic_stringIcNS_11char_traitsIcEENS_9allocatorIcEEEENS4_IS6_EEE26__swap_out_circular_bufferERNS_14__split_bufferIS6_RS7_EE:
100001ca0:	55 	pushq	%rbp
100001ca1:	48 89 e5 	movq	%rsp, %rbp
100001ca4:	48 83 ec 20 	subq	$32, %rsp
100001ca8:	48 89 7d f8 	movq	%rdi, -8(%rbp)
100001cac:	48 89 75 f0 	movq	%rsi, -16(%rbp)
100001cb0:	48 8b 75 f8 	movq	-8(%rbp), %rsi
100001cb4:	48 89 f7 	movq	%rsi, %rdi
100001cb7:	48 89 75 e8 	movq	%rsi, -24(%rbp)
100001cbb:	e8 c0 f7 ff ff 	callq	-2112 <__ZNKSt3__16vectorINS_12basic_stringIcNS_11char_traitsIcEENS_9allocatorIcEEEENS4_IS6_EEE17__annotate_deleteEv>
100001cc0:	48 8b 75 e8 	movq	-24(%rbp), %rsi
100001cc4:	48 89 f7 	movq	%rsi, %rdi
100001cc7:	e8 44 fa ff ff 	callq	-1468 <__ZNSt3__113__vector_baseINS_12basic_stringIcNS_11char_traitsIcEENS_9allocatorIcEEEENS4_IS6_EEE7__allocEv>
100001ccc:	48 8b 75 e8 	movq	-24(%rbp), %rsi
100001cd0:	48 8b 36 	movq	(%rsi), %rsi
100001cd3:	48 8b 7d e8 	movq	-24(%rbp), %rdi
100001cd7:	48 8b 57 08 	movq	8(%rdi), %rdx
100001cdb:	48 8b 4d f0 	movq	-16(%rbp), %rcx
100001cdf:	48 83 c1 08 	addq	$8, %rcx
100001ce3:	48 89 c7 	movq	%rax, %rdi
100001ce6:	e8 f5 06 00 00 	callq	1781 <__ZNSt3__116allocator_traitsINS_9allocatorINS_12basic_stringIcNS_11char_traitsIcEENS1_IcEEEEEEE20__construct_backwardIPS6_EEvRS7_T_SC_RSC_>
100001ceb:	48 8b 45 e8 	movq	-24(%rbp), %rax
100001cef:	48 8b 4d f0 	movq	-16(%rbp), %rcx
100001cf3:	48 83 c1 08 	addq	$8, %rcx
100001cf7:	48 89 c7 	movq	%rax, %rdi
100001cfa:	48 89 ce 	movq	%rcx, %rsi
100001cfd:	e8 5e 07 00 00 	callq	1886 <__ZNSt3__1L4swapIPNS_12basic_stringIcNS_11char_traitsIcEENS_9allocatorIcEEEEEEvRT_S9_>
100001d02:	48 8b 45 e8 	movq	-24(%rbp), %rax
100001d06:	48 83 c0 08 	addq	$8, %rax
100001d0a:	48 8b 4d f0 	movq	-16(%rbp), %rcx
100001d0e:	48 83 c1 10 	addq	$16, %rcx
100001d12:	48 89 c7 	movq	%rax, %rdi
100001d15:	48 89 ce 	movq	%rcx, %rsi
100001d18:	e8 43 07 00 00 	callq	1859 <__ZNSt3__1L4swapIPNS_12basic_stringIcNS_11char_traitsIcEENS_9allocatorIcEEEEEEvRT_S9_>
100001d1d:	48 8b 45 e8 	movq	-24(%rbp), %rax
100001d21:	48 89 c7 	movq	%rax, %rdi
100001d24:	e8 47 fc ff ff 	callq	-953 <__ZNSt3__113__vector_baseINS_12basic_stringIcNS_11char_traitsIcEENS_9allocatorIcEEEENS4_IS6_EEE9__end_capEv>
100001d29:	48 8b 7d f0 	movq	-16(%rbp), %rdi
100001d2d:	48 89 45 e0 	movq	%rax, -32(%rbp)
100001d31:	e8 2a 04 00 00 	callq	1066 <__ZNSt3__114__split_bufferINS_12basic_stringIcNS_11char_traitsIcEENS_9allocatorIcEEEERNS4_IS6_EEE9__end_capEv>
100001d36:	48 8b 7d e0 	movq	-32(%rbp), %rdi
100001d3a:	48 89 c6 	movq	%rax, %rsi
100001d3d:	e8 1e 07 00 00 	callq	1822 <__ZNSt3__1L4swapIPNS_12basic_stringIcNS_11char_traitsIcEENS_9allocatorIcEEEEEEvRT_S9_>
100001d42:	48 8b 45 f0 	movq	-16(%rbp), %rax
100001d46:	48 8b 40 08 	movq	8(%rax), %rax
100001d4a:	48 8b 4d f0 	movq	-16(%rbp), %rcx
100001d4e:	48 89 01 	movq	%rax, (%rcx)
100001d51:	48 8b 7d e8 	movq	-24(%rbp), %rdi
100001d55:	e8 c6 f0 ff ff 	callq	-3898 <__ZNKSt3__16vectorINS_12basic_stringIcNS_11char_traitsIcEENS_9allocatorIcEEEENS4_IS6_EEE4sizeEv>
100001d5a:	48 8b 7d e8 	movq	-24(%rbp), %rdi
100001d5e:	48 89 c6 	movq	%rax, %rsi
100001d61:	e8 4a 07 00 00 	callq	1866 <__ZNKSt3__16vectorINS_12basic_stringIcNS_11char_traitsIcEENS_9allocatorIcEEEENS4_IS6_EEE14__annotate_newEm>
100001d66:	48 8b 7d e8 	movq	-24(%rbp), %rdi
100001d6a:	e8 e1 07 00 00 	callq	2017 <__ZNSt3__16vectorINS_12basic_stringIcNS_11char_traitsIcEENS_9allocatorIcEEEENS4_IS6_EEE26__invalidate_all_iteratorsEv>
100001d6f:	48 83 c4 20 	addq	$32, %rsp
100001d73:	5d 	popq	%rbp
100001d74:	c3 	retq
100001d75:	66 2e 0f 1f 84 00 00 00 00 00 	nopw	%cs:(%rax,%rax)
100001d7f:	90 	nop

__ZNSt3__114__split_bufferINS_12basic_stringIcNS_11char_traitsIcEENS_9allocatorIcEEEERNS4_IS6_EEED1Ev:
100001d80:	55 	pushq	%rbp
100001d81:	48 89 e5 	movq	%rsp, %rbp
100001d84:	48 83 ec 10 	subq	$16, %rsp
100001d88:	48 89 7d f8 	movq	%rdi, -8(%rbp)
100001d8c:	48 8b 7d f8 	movq	-8(%rbp), %rdi
100001d90:	e8 2b 08 00 00 	callq	2091 <__ZNSt3__114__split_bufferINS_12basic_stringIcNS_11char_traitsIcEENS_9allocatorIcEEEERNS4_IS6_EEED2Ev>
100001d95:	48 83 c4 10 	addq	$16, %rsp
100001d99:	5d 	popq	%rbp
100001d9a:	c3 	retq
100001d9b:	0f 1f 44 00 00 	nopl	(%rax,%rax)

__ZNKSt3__16vectorINS_12basic_stringIcNS_11char_traitsIcEENS_9allocatorIcEEEENS4_IS6_EEE8max_sizeEv:
100001da0:	55 	pushq	%rbp
100001da1:	48 89 e5 	movq	%rsp, %rbp
100001da4:	48 83 ec 30 	subq	$48, %rsp
100001da8:	48 89 7d f8 	movq	%rdi, -8(%rbp)
100001dac:	48 8b 7d f8 	movq	-8(%rbp), %rdi
100001db0:	e8 cb 00 00 00 	callq	203 <__ZNKSt3__113__vector_baseINS_12basic_stringIcNS_11char_traitsIcEENS_9allocatorIcEEEENS4_IS6_EEE7__allocEv>
100001db5:	48 89 c7 	movq	%rax, %rdi
100001db8:	e8 a3 00 00 00 	callq	163 <__ZNSt3__116allocator_traitsINS_9allocatorINS_12basic_stringIcNS_11char_traitsIcEENS1_IcEEEEEEE8max_sizeERKS7_>
100001dbd:	48 89 45 f0 	movq	%rax, -16(%rbp)
100001dc1:	e8 da 00 00 00 	callq	218 <__ZNSt3__114numeric_limitsIlE3maxEv>
100001dc6:	48 89 45 e8 	movq	%rax, -24(%rbp)
100001dca:	48 8d 7d f0 	leaq	-16(%rbp), %rdi
100001dce:	48 8d 75 e8 	leaq	-24(%rbp), %rsi
100001dd2:	e8 59 00 00 00 	callq	89 <__ZNSt3__1L3minImEERKT_S3_S3_>
100001dd7:	48 89 45 d0 	movq	%rax, -48(%rbp)
100001ddb:	e9 00 00 00 00 	jmp	0 <__ZNKSt3__16vectorINS_12basic_stringIcNS_11char_traitsIcEENS_9allocatorIcEEEENS4_IS6_EEE8max_sizeEv+0x40>
100001de0:	48 8b 45 d0 	movq	-48(%rbp), %rax
100001de4:	48 8b 00 	movq	(%rax), %rax
100001de7:	48 83 c4 30 	addq	$48, %rsp
100001deb:	5d 	popq	%rbp
100001dec:	c3 	retq
100001ded:	89 d1 	movl	%edx, %ecx
100001def:	48 89 45 e0 	movq	%rax, -32(%rbp)
100001df3:	89 4d dc 	movl	%ecx, -36(%rbp)
100001df6:	48 8b 7d e0 	movq	-32(%rbp), %rdi
100001dfa:	e8 99 1c 00 00 	callq	7321 <dyld_stub_binder+0x100003a98>
100001dff:	90 	nop

__ZNSt3__1L3maxImEERKT_S3_S3_:
100001e00:	55 	pushq	%rbp
100001e01:	48 89 e5 	movq	%rsp, %rbp
100001e04:	48 83 ec 20 	subq	$32, %rsp
100001e08:	48 89 7d f8 	movq	%rdi, -8(%rbp)
100001e0c:	48 89 75 f0 	movq	%rsi, -16(%rbp)
100001e10:	48 8b 7d f8 	movq	-8(%rbp), %rdi
100001e14:	48 8b 75 f0 	movq	-16(%rbp), %rsi
100001e18:	e8 a3 01 00 00 	callq	419 <__ZNSt3__1L3maxImNS_6__lessImmEEEERKT_S5_S5_T0_>
100001e1d:	48 83 c4 20 	addq	$32, %rsp
100001e21:	5d 	popq	%rbp
100001e22:	c3 	retq
100001e23:	66 2e 0f 1f 84 00 00 00 00 00 	nopw	%cs:(%rax,%rax)
100001e2d:	0f 1f 00 	nopl	(%rax)

__ZNSt3__1L3minImEERKT_S3_S3_:
100001e30:	55 	pushq	%rbp
100001e31:	48 89 e5 	movq	%rsp, %rbp
100001e34:	48 83 ec 20 	subq	$32, %rsp
100001e38:	48 89 7d f8 	movq	%rdi, -8(%rbp)
100001e3c:	48 89 75 f0 	movq	%rsi, -16(%rbp)
100001e40:	48 8b 7d f8 	movq	-8(%rbp), %rdi
100001e44:	48 8b 75 f0 	movq	-16(%rbp), %rsi
100001e48:	e8 63 00 00 00 	callq	99 <__ZNSt3__1L3minImNS_6__lessImmEEEERKT_S5_S5_T0_>
100001e4d:	48 83 c4 20 	addq	$32, %rsp
100001e51:	5d 	popq	%rbp
100001e52:	c3 	retq
100001e53:	66 2e 0f 1f 84 00 00 00 00 00 	nopw	%cs:(%rax,%rax)
100001e5d:	0f 1f 00 	nopl	(%rax)

__ZNSt3__116allocator_traitsINS_9allocatorINS_12basic_stringIcNS_11char_traitsIcEENS1_IcEEEEEEE8max_sizeERKS7_:
100001e60:	55 	pushq	%rbp
100001e61:	48 89 e5 	movq	%rsp, %rbp
100001e64:	48 83 ec 20 	subq	$32, %rsp
100001e68:	48 89 7d f8 	movq	%rdi, -8(%rbp)
100001e6c:	48 8b 7d f8 	movq	-8(%rbp), %rdi
100001e70:	e8 bb 00 00 00 	callq	187 <__ZNSt3__116allocator_traitsINS_9allocatorINS_12basic_stringIcNS_11char_traitsIcEENS1_IcEEEEEEE10__max_sizeENS_17integral_constantIbLb1EEERKS7_>
100001e75:	48 83 c4 20 	addq	$32, %rsp
100001e79:	5d 	popq	%rbp
100001e7a:	c3 	retq
100001e7b:	0f 1f 44 00 00 	nopl	(%rax,%rax)

__ZNKSt3__113__vector_baseINS_12basic_stringIcNS_11char_traitsIcEENS_9allocatorIcEEEENS4_IS6_EEE7__allocEv:
100001e80:	55 	pushq	%rbp
100001e81:	48 89 e5 	movq	%rsp, %rbp
100001e84:	48 83 ec 10 	subq	$16, %rsp
100001e88:	48 89 7d f8 	movq	%rdi, -8(%rbp)
100001e8c:	48 8b 7d f8 	movq	-8(%rbp), %rdi
100001e90:	48 83 c7 10 	addq	$16, %rdi
100001e94:	e8 d7 00 00 00 	callq	215 <__ZNKSt3__117__compressed_pairIPNS_12basic_stringIcNS_11char_traitsIcEENS_9allocatorIcEEEENS4_IS6_EEE6secondEv>
100001e99:	48 83 c4 10 	addq	$16, %rsp
100001e9d:	5d 	popq	%rbp
100001e9e:	c3 	retq
100001e9f:	90 	nop

__ZNSt3__114numeric_limitsIlE3maxEv:
100001ea0:	55 	pushq	%rbp
100001ea1:	48 89 e5 	movq	%rsp, %rbp
100001ea4:	e8 07 01 00 00 	callq	263 <__ZNSt3__123__libcpp_numeric_limitsIlLb1EE3maxEv>
100001ea9:	5d 	popq	%rbp
100001eaa:	c3 	retq
100001eab:	0f 1f 44 00 00 	nopl	(%rax,%rax)

__ZNSt3__1L3minImNS_6__lessImmEEEERKT_S5_S5_T0_:
100001eb0:	55 	pushq	%rbp
100001eb1:	48 89 e5 	movq	%rsp, %rbp
100001eb4:	48 83 ec 20 	subq	$32, %rsp
100001eb8:	48 89 7d f0 	movq	%rdi, -16(%rbp)
100001ebc:	48 89 75 e8 	movq	%rsi, -24(%rbp)
100001ec0:	48 8b 75 e8 	movq	-24(%rbp), %rsi
100001ec4:	48 8b 55 f0 	movq	-16(%rbp), %rdx
100001ec8:	48 8d 7d f8 	leaq	-8(%rbp), %rdi
100001ecc:	e8 2f 00 00 00 	callq	47 <__ZNKSt3__16__lessImmEclERKmS3_>
100001ed1:	a8 01 	testb	$1, %al
100001ed3:	0f 85 05 00 00 00 	jne	5 <__ZNSt3__1L3minImNS_6__lessImmEEEERKT_S5_S5_T0_+0x2e>
100001ed9:	e9 0d 00 00 00 	jmp	13 <__ZNSt3__1L3minImNS_6__lessImmEEEERKT_S5_S5_T0_+0x3b>
100001ede:	48 8b 45 e8 	movq	-24(%rbp), %rax
100001ee2:	48 89 45 e0 	movq	%rax, -32(%rbp)
100001ee6:	e9 08 00 00 00 	jmp	8 <__ZNSt3__1L3minImNS_6__lessImmEEEERKT_S5_S5_T0_+0x43>
100001eeb:	48 8b 45 f0 	movq	-16(%rbp), %rax
100001eef:	48 89 45 e0 	movq	%rax, -32(%rbp)
100001ef3:	48 8b 45 e0 	movq	-32(%rbp), %rax
100001ef7:	48 83 c4 20 	addq	$32, %rsp
100001efb:	5d 	popq	%rbp
100001efc:	c3 	retq
100001efd:	0f 1f 00 	nopl	(%rax)

__ZNKSt3__16__lessImmEclERKmS3_:
100001f00:	55 	pushq	%rbp
100001f01:	48 89 e5 	movq	%rsp, %rbp
100001f04:	48 89 7d f8 	movq	%rdi, -8(%rbp)
100001f08:	48 89 75 f0 	movq	%rsi, -16(%rbp)
100001f0c:	48 89 55 e8 	movq	%rdx, -24(%rbp)
100001f10:	48 8b 55 f0 	movq	-16(%rbp), %rdx
100001f14:	48 8b 12 	movq	(%rdx), %rdx
100001f17:	48 8b 75 e8 	movq	-24(%rbp), %rsi
100001f1b:	48 3b 16 	cmpq	(%rsi), %rdx
100001f1e:	0f 92 c0 	setb	%al
100001f21:	24 01 	andb	$1, %al
100001f23:	0f b6 c0 	movzbl	%al, %eax
100001f26:	5d 	popq	%rbp
100001f27:	c3 	retq
100001f28:	0f 1f 84 00 00 00 00 00 	nopl	(%rax,%rax)

__ZNSt3__116allocator_traitsINS_9allocatorINS_12basic_stringIcNS_11char_traitsIcEENS1_IcEEEEEEE10__max_sizeENS_17integral_constantIbLb1EEERKS7_:
100001f30:	55 	pushq	%rbp
100001f31:	48 89 e5 	movq	%rsp, %rbp
100001f34:	48 83 ec 10 	subq	$16, %rsp
100001f38:	48 89 7d f0 	movq	%rdi, -16(%rbp)
100001f3c:	48 8b 7d f0 	movq	-16(%rbp), %rdi
100001f40:	e8 0b 00 00 00 	callq	11 <__ZNKSt3__19allocatorINS_12basic_stringIcNS_11char_traitsIcEENS0_IcEEEEE8max_sizeEv>
100001f45:	48 83 c4 10 	addq	$16, %rsp
100001f49:	5d 	popq	%rbp
100001f4a:	c3 	retq
100001f4b:	0f 1f 44 00 00 	nopl	(%rax,%rax)

__ZNKSt3__19allocatorINS_12basic_stringIcNS_11char_traitsIcEENS0_IcEEEEE8max_sizeEv:
100001f50:	55 	pushq	%rbp
100001f51:	48 89 e5 	movq	%rsp, %rbp
100001f54:	48 89 7d f8 	movq	%rdi, -8(%rbp)
100001f58:	48 b8 aa aa aa aa aa aa aa 0a 	movabsq	$768614336404564650, %rax
100001f62:	5d 	popq	%rbp
100001f63:	c3 	retq
100001f64:	66 2e 0f 1f 84 00 00 00 00 00 	nopw	%cs:(%rax,%rax)
100001f6e:	66 90 	nop

__ZNKSt3__117__compressed_pairIPNS_12basic_stringIcNS_11char_traitsIcEENS_9allocatorIcEEEENS4_IS6_EEE6secondEv:
100001f70:	55 	pushq	%rbp
100001f71:	48 89 e5 	movq	%rsp, %rbp
100001f74:	48 83 ec 10 	subq	$16, %rsp
100001f78:	48 89 7d f8 	movq	%rdi, -8(%rbp)
100001f7c:	48 8b 7d f8 	movq	-8(%rbp), %rdi
100001f80:	e8 0b 00 00 00 	callq	11 <__ZNKSt3__122__compressed_pair_elemINS_9allocatorINS_12basic_stringIcNS_11char_traitsIcEENS1_IcEEEEEELi1ELb1EE5__getEv>
100001f85:	48 83 c4 10 	addq	$16, %rsp
100001f89:	5d 	popq	%rbp
100001f8a:	c3 	retq
100001f8b:	0f 1f 44 00 00 	nopl	(%rax,%rax)

__ZNKSt3__122__compressed_pair_elemINS_9allocatorINS_12basic_stringIcNS_11char_traitsIcEENS1_IcEEEEEELi1ELb1EE5__getEv:
100001f90:	55 	pushq	%rbp
100001f91:	48 89 e5 	movq	%rsp, %rbp
100001f94:	48 89 7d f8 	movq	%rdi, -8(%rbp)
100001f98:	48 8b 7d f8 	movq	-8(%rbp), %rdi
100001f9c:	48 89 f8 	movq	%rdi, %rax
100001f9f:	5d 	popq	%rbp
100001fa0:	c3 	retq
100001fa1:	66 2e 0f 1f 84 00 00 00 00 00 	nopw	%cs:(%rax,%rax)
100001fab:	0f 1f 44 00 00 	nopl	(%rax,%rax)

__ZNSt3__123__libcpp_numeric_limitsIlLb1EE3maxEv:
100001fb0:	55 	pushq	%rbp
100001fb1:	48 89 e5 	movq	%rsp, %rbp
100001fb4:	48 b8 ff ff ff ff ff ff ff 7f 	movabsq	$9223372036854775807, %rax
100001fbe:	5d 	popq	%rbp
100001fbf:	c3 	retq

__ZNSt3__1L3maxImNS_6__lessImmEEEERKT_S5_S5_T0_:
100001fc0:	55 	pushq	%rbp
100001fc1:	48 89 e5 	movq	%rsp, %rbp
100001fc4:	48 83 ec 20 	subq	$32, %rsp
100001fc8:	48 89 7d f0 	movq	%rdi, -16(%rbp)
100001fcc:	48 89 75 e8 	movq	%rsi, -24(%rbp)
100001fd0:	48 8b 75 f0 	movq	-16(%rbp), %rsi
100001fd4:	48 8b 55 e8 	movq	-24(%rbp), %rdx
100001fd8:	48 8d 7d f8 	leaq	-8(%rbp), %rdi
100001fdc:	e8 1f ff ff ff 	callq	-225 <__ZNKSt3__16__lessImmEclERKmS3_>
100001fe1:	a8 01 	testb	$1, %al
100001fe3:	0f 85 05 00 00 00 	jne	5 <__ZNSt3__1L3maxImNS_6__lessImmEEEERKT_S5_S5_T0_+0x2e>
100001fe9:	e9 0d 00 00 00 	jmp	13 <__ZNSt3__1L3maxImNS_6__lessImmEEEERKT_S5_S5_T0_+0x3b>
100001fee:	48 8b 45 e8 	movq	-24(%rbp), %rax
100001ff2:	48 89 45 e0 	movq	%rax, -32(%rbp)
100001ff6:	e9 08 00 00 00 	jmp	8 <__ZNSt3__1L3maxImNS_6__lessImmEEEERKT_S5_S5_T0_+0x43>
100001ffb:	48 8b 45 f0 	movq	-16(%rbp), %rax
100001fff:	48 89 45 e0 	movq	%rax, -32(%rbp)
100002003:	48 8b 45 e0 	movq	-32(%rbp), %rax
100002007:	48 83 c4 20 	addq	$32, %rsp
10000200b:	5d 	popq	%rbp
10000200c:	c3 	retq
10000200d:	0f 1f 00 	nopl	(%rax)

__ZNSt3__114__split_bufferINS_12basic_stringIcNS_11char_traitsIcEENS_9allocatorIcEEEERNS4_IS6_EEEC2EmmS8_:
100002010:	55 	pushq	%rbp
100002011:	48 89 e5 	movq	%rsp, %rbp
100002014:	48 83 ec 50 	subq	$80, %rsp
100002018:	48 89 7d f8 	movq	%rdi, -8(%rbp)
10000201c:	48 89 75 f0 	movq	%rsi, -16(%rbp)
100002020:	48 89 55 e8 	movq	%rdx, -24(%rbp)
100002024:	48 89 4d e0 	movq	%rcx, -32(%rbp)
100002028:	48 8b 4d f8 	movq	-8(%rbp), %rcx
10000202c:	48 89 ca 	movq	%rcx, %rdx
10000202f:	48 83 c2 18 	addq	$24, %rdx
100002033:	48 89 4d c8 	movq	%rcx, -56(%rbp)
100002037:	48 89 55 c0 	movq	%rdx, -64(%rbp)
10000203b:	e8 40 f2 ff ff 	callq	-3520 <__ZNSt3__1L15__get_nullptr_tEv>
100002040:	48 89 45 d8 	movq	%rax, -40(%rbp)
100002044:	48 8d 7d d8 	leaq	-40(%rbp), %rdi
100002048:	e8 63 f2 ff ff 	callq	-3485 <__ZNKSt3__19nullptr_tcvPT_INS_12basic_stringIcNS_11char_traitsIcEENS_9allocatorIcEEEEEEv>
10000204d:	48 8b 55 e0 	movq	-32(%rbp), %rdx
100002051:	48 8b 7d c0 	movq	-64(%rbp), %rdi
100002055:	48 89 c6 	movq	%rax, %rsi
100002058:	e8 83 00 00 00 	callq	131 <__ZNSt3__117__compressed_pairIPNS_12basic_stringIcNS_11char_traitsIcEENS_9allocatorIcEEEERNS4_IS6_EEEC1ES7_S9_>
10000205d:	48 83 7d f0 00 	cmpq	$0, -16(%rbp)
100002062:	0f 84 1e 00 00 00 	je	30 <__ZNSt3__114__split_bufferINS_12basic_stringIcNS_11char_traitsIcEENS_9allocatorIcEEEERNS4_IS6_EEEC2EmmS8_+0x76>
100002068:	48 8b 7d c8 	movq	-56(%rbp), %rdi
10000206c:	e8 cf 00 00 00 	callq	207 <__ZNSt3__114__split_bufferINS_12basic_stringIcNS_11char_traitsIcEENS_9allocatorIcEEEERNS4_IS6_EEE7__allocEv>
100002071:	48 8b 75 f0 	movq	-16(%rbp), %rsi
100002075:	48 89 c7 	movq	%rax, %rdi
100002078:	e8 93 00 00 00 	callq	147 <__ZNSt3__116allocator_traitsINS_9allocatorINS_12basic_stringIcNS_11char_traitsIcEENS1_IcEEEEEEE8allocateERS7_m>
10000207d:	48 89 45 b8 	movq	%rax, -72(%rbp)
100002081:	e9 16 00 00 00 	jmp	22 <__ZNSt3__114__split_bufferINS_12basic_stringIcNS_11char_traitsIcEENS_9allocatorIcEEEERNS4_IS6_EEEC2EmmS8_+0x8c>
100002086:	e8 f5 f1 ff ff 	callq	-3595 <__ZNSt3__1L15__get_nullptr_tEv>
10000208b:	48 89 45 d0 	movq	%rax, -48(%rbp)
10000208f:	48 8d 7d d0 	leaq	-48(%rbp), %rdi
100002093:	e8 18 f2 ff ff 	callq	-3560 <__ZNKSt3__19nullptr_tcvPT_INS_12basic_stringIcNS_11char_traitsIcEENS_9allocatorIcEEEEEEv>
100002098:	48 89 45 b8 	movq	%rax, -72(%rbp)
10000209c:	48 8b 45 b8 	movq	-72(%rbp), %rax
1000020a0:	48 8b 4d c8 	movq	-56(%rbp), %rcx
1000020a4:	48 89 01 	movq	%rax, (%rcx)
1000020a7:	48 8b 01 	movq	(%rcx), %rax
1000020aa:	48 6b 55 e8 18 	imulq	$24, -24(%rbp), %rdx
1000020af:	48 01 d0 	addq	%rdx, %rax
1000020b2:	48 89 41 10 	movq	%rax, 16(%rcx)
1000020b6:	48 89 41 08 	movq	%rax, 8(%rcx)
1000020ba:	48 8b 01 	movq	(%rcx), %rax
1000020bd:	48 6b 55 f0 18 	imulq	$24, -16(%rbp), %rdx
1000020c2:	48 01 d0 	addq	%rdx, %rax
1000020c5:	48 89 cf 	movq	%rcx, %rdi
1000020c8:	48 89 45 b0 	movq	%rax, -80(%rbp)
1000020cc:	e8 8f 00 00 00 	callq	143 <__ZNSt3__114__split_bufferINS_12basic_stringIcNS_11char_traitsIcEENS_9allocatorIcEEEERNS4_IS6_EEE9__end_capEv>
1000020d1:	48 8b 4d b0 	movq	-80(%rbp), %rcx
1000020d5:	48 89 08 	movq	%rcx, (%rax)
1000020d8:	48 83 c4 50 	addq	$80, %rsp
1000020dc:	5d 	popq	%rbp
1000020dd:	c3 	retq
1000020de:	66 90 	nop

__ZNSt3__117__compressed_pairIPNS_12basic_stringIcNS_11char_traitsIcEENS_9allocatorIcEEEERNS4_IS6_EEEC1ES7_S9_:
1000020e0:	55 	pushq	%rbp
1000020e1:	48 89 e5 	movq	%rsp, %rbp
1000020e4:	48 83 ec 20 	subq	$32, %rsp
1000020e8:	48 89 7d f8 	movq	%rdi, -8(%rbp)
1000020ec:	48 89 75 f0 	movq	%rsi, -16(%rbp)
1000020f0:	48 89 55 e8 	movq	%rdx, -24(%rbp)
1000020f4:	48 8b 7d f8 	movq	-8(%rbp), %rdi
1000020f8:	48 8b 75 f0 	movq	-16(%rbp), %rsi
1000020fc:	48 8b 55 e8 	movq	-24(%rbp), %rdx
100002100:	e8 7b 00 00 00 	callq	123 <__ZNSt3__117__compressed_pairIPNS_12basic_stringIcNS_11char_traitsIcEENS_9allocatorIcEEEERNS4_IS6_EEEC2ES7_S9_>
100002105:	48 83 c4 20 	addq	$32, %rsp
100002109:	5d 	popq	%rbp
10000210a:	c3 	retq
10000210b:	0f 1f 44 00 00 	nopl	(%rax,%rax)

__ZNSt3__116allocator_traitsINS_9allocatorINS_12basic_stringIcNS_11char_traitsIcEENS1_IcEEEEEEE8allocateERS7_m:
100002110:	55 	pushq	%rbp
100002111:	48 89 e5 	movq	%rsp, %rbp
100002114:	48 83 ec 10 	subq	$16, %rsp
100002118:	31 c0 	xorl	%eax, %eax
10000211a:	89 c2 	movl	%eax, %edx
10000211c:	48 89 7d f8 	movq	%rdi, -8(%rbp)
100002120:	48 89 75 f0 	movq	%rsi, -16(%rbp)
100002124:	48 8b 7d f8 	movq	-8(%rbp), %rdi
100002128:	48 8b 75 f0 	movq	-16(%rbp), %rsi
10000212c:	e8 ef 00 00 00 	callq	239 <__ZNSt3__19allocatorINS_12basic_stringIcNS_11char_traitsIcEENS0_IcEEEEE8allocateEmPKv>
100002131:	48 83 c4 10 	addq	$16, %rsp
100002135:	5d 	popq	%rbp
100002136:	c3 	retq
100002137:	66 0f 1f 84 00 00 00 00 00 	nopw	(%rax,%rax)

__ZNSt3__114__split_bufferINS_12basic_stringIcNS_11char_traitsIcEENS_9allocatorIcEEEERNS4_IS6_EEE7__allocEv:
100002140:	55 	pushq	%rbp
100002141:	48 89 e5 	movq	%rsp, %rbp
100002144:	48 83 ec 10 	subq	$16, %rsp
100002148:	48 89 7d f8 	movq	%rdi, -8(%rbp)
10000214c:	48 8b 7d f8 	movq	-8(%rbp), %rdi
100002150:	48 83 c7 18 	addq	$24, %rdi
100002154:	e8 27 02 00 00 	callq	551 <__ZNSt3__117__compressed_pairIPNS_12basic_stringIcNS_11char_traitsIcEENS_9allocatorIcEEEERNS4_IS6_EEE6secondEv>
100002159:	48 83 c4 10 	addq	$16, %rsp
10000215d:	5d 	popq	%rbp
10000215e:	c3 	retq
10000215f:	90 	nop

__ZNSt3__114__split_bufferINS_12basic_stringIcNS_11char_traitsIcEENS_9allocatorIcEEEERNS4_IS6_EEE9__end_capEv:
100002160:	55 	pushq	%rbp
100002161:	48 89 e5 	movq	%rsp, %rbp
100002164:	48 83 ec 10 	subq	$16, %rsp
100002168:	48 89 7d f8 	movq	%rdi, -8(%rbp)
10000216c:	48 8b 7d f8 	movq	-8(%rbp), %rdi
100002170:	48 83 c7 18 	addq	$24, %rdi
100002174:	e8 47 02 00 00 	callq	583 <__ZNSt3__117__compressed_pairIPNS_12basic_stringIcNS_11char_traitsIcEENS_9allocatorIcEEEERNS4_IS6_EEE5firstEv>
100002179:	48 83 c4 10 	addq	$16, %rsp
10000217d:	5d 	popq	%rbp
10000217e:	c3 	retq
10000217f:	90 	nop

__ZNSt3__117__compressed_pairIPNS_12basic_stringIcNS_11char_traitsIcEENS_9allocatorIcEEEERNS4_IS6_EEEC2ES7_S9_:
100002180:	55 	pushq	%rbp
100002181:	48 89 e5 	movq	%rsp, %rbp
100002184:	48 83 ec 30 	subq	$48, %rsp
100002188:	48 89 7d f8 	movq	%rdi, -8(%rbp)
10000218c:	48 89 75 f0 	movq	%rsi, -16(%rbp)
100002190:	48 89 55 e8 	movq	%rdx, -24(%rbp)
100002194:	48 8b 55 f8 	movq	-8(%rbp), %rdx
100002198:	48 89 d6 	movq	%rdx, %rsi
10000219b:	48 8d 7d f0 	leaq	-16(%rbp), %rdi
10000219f:	48 89 55 e0 	movq	%rdx, -32(%rbp)
1000021a3:	48 89 75 d8 	movq	%rsi, -40(%rbp)
1000021a7:	e8 e4 f1 ff ff 	callq	-3612 <__ZNSt3__1L7forwardIPNS_12basic_stringIcNS_11char_traitsIcEENS_9allocatorIcEEEEEERT_RNS_16remove_referenceIS8_E4typeE>
1000021ac:	48 8b 30 	movq	(%rax), %rsi
1000021af:	48 8b 7d d8 	movq	-40(%rbp), %rdi
1000021b3:	e8 e8 f1 ff ff 	callq	-3608 <__ZNSt3__122__compressed_pair_elemIPNS_12basic_stringIcNS_11char_traitsIcEENS_9allocatorIcEEEELi0ELb0EEC2ES7_>
1000021b8:	48 8b 45 e0 	movq	-32(%rbp), %rax
1000021bc:	48 83 c0 08 	addq	$8, %rax
1000021c0:	48 8b 7d e8 	movq	-24(%rbp), %rdi
1000021c4:	48 89 45 d0 	movq	%rax, -48(%rbp)
1000021c8:	e8 13 00 00 00 	callq	19 <__ZNSt3__1L7forwardIRNS_9allocatorINS_12basic_stringIcNS_11char_traitsIcEENS1_IcEEEEEEEERT_RNS_16remove_referenceIS9_E4typeE>
1000021cd:	48 8b 7d d0 	movq	-48(%rbp), %rdi
1000021d1:	48 89 c6 	movq	%rax, %rsi
1000021d4:	e8 17 00 00 00 	callq	23 <__ZNSt3__122__compressed_pair_elemIRNS_9allocatorINS_12basic_stringIcNS_11char_traitsIcEENS1_IcEEEEEELi1ELb0EEC2ES8_>
1000021d9:	48 83 c4 30 	addq	$48, %rsp
1000021dd:	5d 	popq	%rbp
1000021de:	c3 	retq
1000021df:	90 	nop

__ZNSt3__1L7forwardIRNS_9allocatorINS_12basic_stringIcNS_11char_traitsIcEENS1_IcEEEEEEEERT_RNS_16remove_referenceIS9_E4typeE:
1000021e0:	55 	pushq	%rbp
1000021e1:	48 89 e5 	movq	%rsp, %rbp
1000021e4:	48 89 7d f8 	movq	%rdi, -8(%rbp)
1000021e8:	48 8b 45 f8 	movq	-8(%rbp), %rax
1000021ec:	5d 	popq	%rbp
1000021ed:	c3 	retq
1000021ee:	66 90 	nop

__ZNSt3__122__compressed_pair_elemIRNS_9allocatorINS_12basic_stringIcNS_11char_traitsIcEENS1_IcEEEEEELi1ELb0EEC2ES8_:
1000021f0:	55 	pushq	%rbp
1000021f1:	48 89 e5 	movq	%rsp, %rbp
1000021f4:	48 83 ec 20 	subq	$32, %rsp
1000021f8:	48 89 7d f8 	movq	%rdi, -8(%rbp)
1000021fc:	48 89 75 f0 	movq	%rsi, -16(%rbp)
100002200:	48 8b 75 f8 	movq	-8(%rbp), %rsi
100002204:	48 8b 7d f0 	movq	-16(%rbp), %rdi
100002208:	48 89 75 e8 	movq	%rsi, -24(%rbp)
10000220c:	e8 cf ff ff ff 	callq	-49 <__ZNSt3__1L7forwardIRNS_9allocatorINS_12basic_stringIcNS_11char_traitsIcEENS1_IcEEEEEEEERT_RNS_16remove_referenceIS9_E4typeE>
100002211:	48 8b 75 e8 	movq	-24(%rbp), %rsi
100002215:	48 89 06 	movq	%rax, (%rsi)
100002218:	48 83 c4 20 	addq	$32, %rsp
10000221c:	5d 	popq	%rbp
10000221d:	c3 	retq
10000221e:	66 90 	nop

__ZNSt3__19allocatorINS_12basic_stringIcNS_11char_traitsIcEENS0_IcEEEEE8allocateEmPKv:
100002220:	55 	pushq	%rbp
100002221:	48 89 e5 	movq	%rsp, %rbp
100002224:	48 83 ec 20 	subq	$32, %rsp
100002228:	48 89 7d f8 	movq	%rdi, -8(%rbp)
10000222c:	48 89 75 f0 	movq	%rsi, -16(%rbp)
100002230:	48 89 55 e8 	movq	%rdx, -24(%rbp)
100002234:	48 8b 7d f8 	movq	-8(%rbp), %rdi
100002238:	48 8b 55 f0 	movq	-16(%rbp), %rdx
10000223c:	48 89 55 e0 	movq	%rdx, -32(%rbp)
100002240:	e8 0b fd ff ff 	callq	-757 <__ZNKSt3__19allocatorINS_12basic_stringIcNS_11char_traitsIcEENS0_IcEEEEE8max_sizeEv>
100002245:	48 8b 55 e0 	movq	-32(%rbp), %rdx
100002249:	48 39 c2 	cmpq	%rax, %rdx
10000224c:	0f 86 0c 00 00 00 	jbe	12 <__ZNSt3__19allocatorINS_12basic_stringIcNS_11char_traitsIcEENS0_IcEEEEE8allocateEmPKv+0x3e>
100002252:	48 8d 3d 05 1c 00 00 	leaq	7173(%rip), %rdi
100002259:	e8 22 00 00 00 	callq	34 <__ZNSt3__1L20__throw_length_errorEPKc>
10000225e:	48 6b 7d f0 18 	imulq	$24, -16(%rbp), %rdi
100002263:	be 08 00 00 00 	movl	$8, %esi
100002268:	e8 83 00 00 00 	callq	131 <__ZNSt3__1L17__libcpp_allocateEmm>
10000226d:	48 83 c4 20 	addq	$32, %rsp
100002271:	5d 	popq	%rbp
100002272:	c3 	retq
100002273:	66 2e 0f 1f 84 00 00 00 00 00 	nopw	%cs:(%rax,%rax)
10000227d:	0f 1f 00 	nopl	(%rax)

__ZNSt3__1L20__throw_length_errorEPKc:
100002280:	55 	pushq	%rbp
100002281:	48 89 e5 	movq	%rsp, %rbp
100002284:	48 83 ec 20 	subq	$32, %rsp
100002288:	48 89 7d f8 	movq	%rdi, -8(%rbp)
10000228c:	bf 10 00 00 00 	movl	$16, %edi
100002291:	e8 f6 17 00 00 	callq	6134 <dyld_stub_binder+0x100003a8c>
100002296:	48 89 c7 	movq	%rax, %rdi
100002299:	48 8b 75 f8 	movq	-8(%rbp), %rsi
10000229d:	48 89 7d e0 	movq	%rdi, -32(%rbp)
1000022a1:	48 89 c7 	movq	%rax, %rdi
1000022a4:	e8 67 00 00 00 	callq	103 <__ZNSt12length_errorC1EPKc>
1000022a9:	e9 00 00 00 00 	jmp	0 <__ZNSt3__1L20__throw_length_errorEPKc+0x2e>
1000022ae:	48 8b 35 73 1d 00 00 	movq	7539(%rip), %rsi
1000022b5:	48 8b 15 4c 1d 00 00 	movq	7500(%rip), %rdx
1000022bc:	48 8b 7d e0 	movq	-32(%rbp), %rdi
1000022c0:	e8 e5 17 00 00 	callq	6117 <dyld_stub_binder+0x100003aaa>
1000022c5:	89 d1 	movl	%edx, %ecx
1000022c7:	48 89 45 f0 	movq	%rax, -16(%rbp)
1000022cb:	89 4d ec 	movl	%ecx, -20(%rbp)
1000022ce:	48 8b 7d e0 	movq	-32(%rbp), %rdi
1000022d2:	e8 cd 17 00 00 	callq	6093 <dyld_stub_binder+0x100003aa4>
1000022d7:	48 8b 7d f0 	movq	-16(%rbp), %rdi
1000022db:	e8 d4 16 00 00 	callq	5844 <dyld_stub_binder+0x1000039b4>
1000022e0:	0f 0b 	ud2
1000022e2:	66 2e 0f 1f 84 00 00 00 00 00 	nopw	%cs:(%rax,%rax)
1000022ec:	0f 1f 40 00 	nopl	(%rax)

__ZNSt3__1L17__libcpp_allocateEmm:
1000022f0:	55 	pushq	%rbp
1000022f1:	48 89 e5 	movq	%rsp, %rbp
1000022f4:	48 83 ec 10 	subq	$16, %rsp
1000022f8:	48 89 7d f8 	movq	%rdi, -8(%rbp)
1000022fc:	48 89 75 f0 	movq	%rsi, -16(%rbp)
100002300:	48 8b 7d f8 	movq	-8(%rbp), %rdi
100002304:	e8 7d 17 00 00 	callq	6013 <dyld_stub_binder+0x100003a86>
100002309:	48 83 c4 10 	addq	$16, %rsp
10000230d:	5d 	popq	%rbp
10000230e:	c3 	retq
10000230f:	90 	nop

__ZNSt12length_errorC1EPKc:
100002310:	55 	pushq	%rbp
100002311:	48 89 e5 	movq	%rsp, %rbp
100002314:	48 83 ec 10 	subq	$16, %rsp
100002318:	48 89 7d f8 	movq	%rdi, -8(%rbp)
10000231c:	48 89 75 f0 	movq	%rsi, -16(%rbp)
100002320:	48 8b 7d f8 	movq	-8(%rbp), %rdi
100002324:	48 8b 75 f0 	movq	-16(%rbp), %rsi
100002328:	e8 13 00 00 00 	callq	19 <__ZNSt12length_errorC2EPKc>
10000232d:	48 83 c4 10 	addq	$16, %rsp
100002331:	5d 	popq	%rbp
100002332:	c3 	retq
100002333:	66 2e 0f 1f 84 00 00 00 00 00 	nopw	%cs:(%rax,%rax)
10000233d:	0f 1f 00 	nopl	(%rax)

__ZNSt12length_errorC2EPKc:
100002340:	55 	pushq	%rbp
100002341:	48 89 e5 	movq	%rsp, %rbp
100002344:	48 83 ec 20 	subq	$32, %rsp
100002348:	48 89 7d f8 	movq	%rdi, -8(%rbp)
10000234c:	48 89 75 f0 	movq	%rsi, -16(%rbp)
100002350:	48 8b 75 f8 	movq	-8(%rbp), %rsi
100002354:	48 89 f7 	movq	%rsi, %rdi
100002357:	48 8b 45 f0 	movq	-16(%rbp), %rax
10000235b:	48 89 75 e8 	movq	%rsi, -24(%rbp)
10000235f:	48 89 c6 	movq	%rax, %rsi
100002362:	e8 6b 16 00 00 	callq	5739 <dyld_stub_binder+0x1000039d2>
100002367:	48 8b 05 c2 1c 00 00 	movq	7362(%rip), %rax
10000236e:	48 83 c0 10 	addq	$16, %rax
100002372:	48 8b 75 e8 	movq	-24(%rbp), %rsi
100002376:	48 89 06 	movq	%rax, (%rsi)
100002379:	48 83 c4 20 	addq	$32, %rsp
10000237d:	5d 	popq	%rbp
10000237e:	c3 	retq
10000237f:	90 	nop

__ZNSt3__117__compressed_pairIPNS_12basic_stringIcNS_11char_traitsIcEENS_9allocatorIcEEEERNS4_IS6_EEE6secondEv:
100002380:	55 	pushq	%rbp
100002381:	48 89 e5 	movq	%rsp, %rbp
100002384:	48 83 ec 10 	subq	$16, %rsp
100002388:	48 89 7d f8 	movq	%rdi, -8(%rbp)
10000238c:	48 8b 7d f8 	movq	-8(%rbp), %rdi
100002390:	48 83 c7 08 	addq	$8, %rdi
100002394:	e8 07 00 00 00 	callq	7 <__ZNSt3__122__compressed_pair_elemIRNS_9allocatorINS_12basic_stringIcNS_11char_traitsIcEENS1_IcEEEEEELi1ELb0EE5__getEv>
100002399:	48 83 c4 10 	addq	$16, %rsp
10000239d:	5d 	popq	%rbp
10000239e:	c3 	retq
10000239f:	90 	nop

__ZNSt3__122__compressed_pair_elemIRNS_9allocatorINS_12basic_stringIcNS_11char_traitsIcEENS1_IcEEEEEELi1ELb0EE5__getEv:
1000023a0:	55 	pushq	%rbp
1000023a1:	48 89 e5 	movq	%rsp, %rbp
1000023a4:	48 89 7d f8 	movq	%rdi, -8(%rbp)
1000023a8:	48 8b 7d f8 	movq	-8(%rbp), %rdi
1000023ac:	48 8b 07 	movq	(%rdi), %rax
1000023af:	5d 	popq	%rbp
1000023b0:	c3 	retq
1000023b1:	66 2e 0f 1f 84 00 00 00 00 00 	nopw	%cs:(%rax,%rax)
1000023bb:	0f 1f 44 00 00 	nopl	(%rax,%rax)

__ZNSt3__117__compressed_pairIPNS_12basic_stringIcNS_11char_traitsIcEENS_9allocatorIcEEEERNS4_IS6_EEE5firstEv:
1000023c0:	55 	pushq	%rbp
1000023c1:	48 89 e5 	movq	%rsp, %rbp
1000023c4:	48 83 ec 10 	subq	$16, %rsp
1000023c8:	48 89 7d f8 	movq	%rdi, -8(%rbp)
1000023cc:	48 8b 7d f8 	movq	-8(%rbp), %rdi
1000023d0:	e8 4b f7 ff ff 	callq	-2229 <__ZNSt3__122__compressed_pair_elemIPNS_12basic_stringIcNS_11char_traitsIcEENS_9allocatorIcEEEELi0ELb0EE5__getEv>
1000023d5:	48 83 c4 10 	addq	$16, %rsp
1000023d9:	5d 	popq	%rbp
1000023da:	c3 	retq
1000023db:	0f 1f 44 00 00 	nopl	(%rax,%rax)

__ZNSt3__116allocator_traitsINS_9allocatorINS_12basic_stringIcNS_11char_traitsIcEENS1_IcEEEEEEE20__construct_backwardIPS6_EEvRS7_T_SC_RSC_:
1000023e0:	55 	pushq	%rbp
1000023e1:	48 89 e5 	movq	%rsp, %rbp
1000023e4:	48 83 ec 30 	subq	$48, %rsp
1000023e8:	48 89 7d f8 	movq	%rdi, -8(%rbp)
1000023ec:	48 89 75 f0 	movq	%rsi, -16(%rbp)
1000023f0:	48 89 55 e8 	movq	%rdx, -24(%rbp)
1000023f4:	48 89 4d e0 	movq	%rcx, -32(%rbp)
1000023f8:	48 8b 45 e8 	movq	-24(%rbp), %rax
1000023fc:	48 3b 45 f0 	cmpq	-16(%rbp), %rax
100002400:	0f 84 53 00 00 00 	je	83 <__ZNSt3__116allocator_traitsINS_9allocatorINS_12basic_stringIcNS_11char_traitsIcEENS1_IcEEEEEEE20__construct_backwardIPS6_EEvRS7_T_SC_RSC_+0x79>
100002406:	48 8b 7d f8 	movq	-8(%rbp), %rdi
10000240a:	48 8b 45 e0 	movq	-32(%rbp), %rax
10000240e:	48 8b 00 	movq	(%rax), %rax
100002411:	48 83 c0 e8 	addq	$-24, %rax
100002415:	48 89 7d d8 	movq	%rdi, -40(%rbp)
100002419:	48 89 c7 	movq	%rax, %rdi
10000241c:	e8 ff f1 ff ff 	callq	-3585 <__ZNSt3__1L16__to_raw_pointerINS_12basic_stringIcNS_11char_traitsIcEENS_9allocatorIcEEEEEEPT_S8_>
100002421:	48 8b 7d e8 	movq	-24(%rbp), %rdi
100002425:	48 83 c7 e8 	addq	$-24, %rdi
100002429:	48 89 7d e8 	movq	%rdi, -24(%rbp)
10000242d:	48 89 45 d0 	movq	%rax, -48(%rbp)
100002431:	e8 2a 01 00 00 	callq	298 <__ZNSt3__1L16move_if_noexceptINS_12basic_stringIcNS_11char_traitsIcEENS_9allocatorIcEEEEEERKT_RS7_>
100002436:	48 8b 7d d8 	movq	-40(%rbp), %rdi
10000243a:	48 8b 75 d0 	movq	-48(%rbp), %rsi
10000243e:	48 89 c2 	movq	%rax, %rdx
100002441:	e8 7a f5 ff ff 	callq	-2694 <__ZNSt3__116allocator_traitsINS_9allocatorINS_12basic_stringIcNS_11char_traitsIcEENS1_IcEEEEEEE9constructIS6_S6_EEvRS7_PT_RKT0_>
100002446:	48 8b 45 e0 	movq	-32(%rbp), %rax
10000244a:	48 8b 10 	movq	(%rax), %rdx
10000244d:	48 83 c2 e8 	addq	$-24, %rdx
100002451:	48 89 10 	movq	%rdx, (%rax)
100002454:	e9 9f ff ff ff 	jmp	-97 <__ZNSt3__116allocator_traitsINS_9allocatorINS_12basic_stringIcNS_11char_traitsIcEENS1_IcEEEEEEE20__construct_backwardIPS6_EEvRS7_T_SC_RSC_+0x18>
100002459:	48 83 c4 30 	addq	$48, %rsp
10000245d:	5d 	popq	%rbp
10000245e:	c3 	retq
10000245f:	90 	nop

__ZNSt3__1L4swapIPNS_12basic_stringIcNS_11char_traitsIcEENS_9allocatorIcEEEEEEvRT_S9_:
100002460:	55 	pushq	%rbp
100002461:	48 89 e5 	movq	%rsp, %rbp
100002464:	48 83 ec 20 	subq	$32, %rsp
100002468:	48 89 7d f8 	movq	%rdi, -8(%rbp)
10000246c:	48 89 75 f0 	movq	%rsi, -16(%rbp)
100002470:	48 8b 7d f8 	movq	-8(%rbp), %rdi
100002474:	e8 37 01 00 00 	callq	311 <__ZNSt3__1L4moveIPNS_12basic_stringIcNS_11char_traitsIcEENS_9allocatorIcEEEEEERT_S9_>
100002479:	48 8b 00 	movq	(%rax), %rax
10000247c:	48 89 45 e8 	movq	%rax, -24(%rbp)
100002480:	48 8b 7d f0 	movq	-16(%rbp), %rdi
100002484:	e8 27 01 00 00 	callq	295 <__ZNSt3__1L4moveIPNS_12basic_stringIcNS_11char_traitsIcEENS_9allocatorIcEEEEEERT_S9_>
100002489:	48 8b 00 	movq	(%rax), %rax
10000248c:	48 8b 75 f8 	movq	-8(%rbp), %rsi
100002490:	48 89 06 	movq	%rax, (%rsi)
100002493:	48 8d 7d e8 	leaq	-24(%rbp), %rdi
100002497:	e8 14 01 00 00 	callq	276 <__ZNSt3__1L4moveIPNS_12basic_stringIcNS_11char_traitsIcEENS_9allocatorIcEEEEEERT_S9_>
10000249c:	48 8b 00 	movq	(%rax), %rax
10000249f:	48 8b 75 f0 	movq	-16(%rbp), %rsi
1000024a3:	48 89 06 	movq	%rax, (%rsi)
1000024a6:	48 83 c4 20 	addq	$32, %rsp
1000024aa:	5d 	popq	%rbp
1000024ab:	c3 	retq
1000024ac:	0f 1f 40 00 	nopl	(%rax)

__ZNKSt3__16vectorINS_12basic_stringIcNS_11char_traitsIcEENS_9allocatorIcEEEENS4_IS6_EEE14__annotate_newEm:
1000024b0:	55 	pushq	%rbp
1000024b1:	48 89 e5 	movq	%rsp, %rbp
1000024b4:	48 83 ec 40 	subq	$64, %rsp
1000024b8:	48 89 7d f8 	movq	%rdi, -8(%rbp)
1000024bc:	48 89 75 f0 	movq	%rsi, -16(%rbp)
1000024c0:	48 8b 75 f8 	movq	-8(%rbp), %rsi
1000024c4:	48 89 f7 	movq	%rsi, %rdi
1000024c7:	48 89 75 e8 	movq	%rsi, -24(%rbp)
1000024cb:	e8 10 f1 ff ff 	callq	-3824 <__ZNKSt3__16vectorINS_12basic_stringIcNS_11char_traitsIcEENS_9allocatorIcEEEENS4_IS6_EEE4dataEv>
1000024d0:	48 8b 7d e8 	movq	-24(%rbp), %rdi
1000024d4:	48 89 45 e0 	movq	%rax, -32(%rbp)
1000024d8:	e8 03 f1 ff ff 	callq	-3837 <__ZNKSt3__16vectorINS_12basic_stringIcNS_11char_traitsIcEENS_9allocatorIcEEEENS4_IS6_EEE4dataEv>
1000024dd:	48 8b 7d e8 	movq	-24(%rbp), %rdi
1000024e1:	48 89 45 d8 	movq	%rax, -40(%rbp)
1000024e5:	e8 16 f1 ff ff 	callq	-3818 <__ZNKSt3__16vectorINS_12basic_stringIcNS_11char_traitsIcEENS_9allocatorIcEEEENS4_IS6_EEE8capacityEv>
1000024ea:	48 6b c0 18 	imulq	$24, %rax, %rax
1000024ee:	48 8b 75 d8 	movq	-40(%rbp), %rsi
1000024f2:	48 01 c6 	addq	%rax, %rsi
1000024f5:	48 8b 7d e8 	movq	-24(%rbp), %rdi
1000024f9:	48 89 75 d0 	movq	%rsi, -48(%rbp)
1000024fd:	e8 de f0 ff ff 	callq	-3874 <__ZNKSt3__16vectorINS_12basic_stringIcNS_11char_traitsIcEENS_9allocatorIcEEEENS4_IS6_EEE4dataEv>
100002502:	48 8b 7d e8 	movq	-24(%rbp), %rdi
100002506:	48 89 45 c8 	movq	%rax, -56(%rbp)
10000250a:	e8 f1 f0 ff ff 	callq	-3855 <__ZNKSt3__16vectorINS_12basic_stringIcNS_11char_traitsIcEENS_9allocatorIcEEEENS4_IS6_EEE8capacityEv>
10000250f:	48 6b c0 18 	imulq	$24, %rax, %rax
100002513:	48 8b 75 c8 	movq	-56(%rbp), %rsi
100002517:	48 01 c6 	addq	%rax, %rsi
10000251a:	48 8b 7d e8 	movq	-24(%rbp), %rdi
10000251e:	48 89 75 c0 	movq	%rsi, -64(%rbp)
100002522:	e8 b9 f0 ff ff 	callq	-3911 <__ZNKSt3__16vectorINS_12basic_stringIcNS_11char_traitsIcEENS_9allocatorIcEEEENS4_IS6_EEE4dataEv>
100002527:	48 6b 75 f0 18 	imulq	$24, -16(%rbp), %rsi
10000252c:	48 01 f0 	addq	%rsi, %rax
10000252f:	48 8b 7d e8 	movq	-24(%rbp), %rdi
100002533:	48 8b 75 e0 	movq	-32(%rbp), %rsi
100002537:	48 8b 55 d0 	movq	-48(%rbp), %rdx
10000253b:	48 8b 4d c0 	movq	-64(%rbp), %rcx
10000253f:	49 89 c0 	movq	%rax, %r8
100002542:	e8 79 f0 ff ff 	callq	-3975 <__ZNKSt3__16vectorINS_12basic_stringIcNS_11char_traitsIcEENS_9allocatorIcEEEENS4_IS6_EEE31__annotate_contiguous_containerEPKvSA_SA_SA_>
100002547:	48 83 c4 40 	addq	$64, %rsp
10000254b:	5d 	popq	%rbp
10000254c:	c3 	retq
10000254d:	0f 1f 00 	nopl	(%rax)

__ZNSt3__16vectorINS_12basic_stringIcNS_11char_traitsIcEENS_9allocatorIcEEEENS4_IS6_EEE26__invalidate_all_iteratorsEv:
100002550:	55 	pushq	%rbp
100002551:	48 89 e5 	movq	%rsp, %rbp
100002554:	48 89 7d f8 	movq	%rdi, -8(%rbp)
100002558:	5d 	popq	%rbp
100002559:	c3 	retq
10000255a:	66 0f 1f 44 00 00 	nopw	(%rax,%rax)

__ZNSt3__1L16move_if_noexceptINS_12basic_stringIcNS_11char_traitsIcEENS_9allocatorIcEEEEEERKT_RS7_:
100002560:	55 	pushq	%rbp
100002561:	48 89 e5 	movq	%rsp, %rbp
100002564:	48 83 ec 20 	subq	$32, %rsp
100002568:	48 89 7d f8 	movq	%rdi, -8(%rbp)
10000256c:	48 8b 7d f8 	movq	-8(%rbp), %rdi
100002570:	e8 2b 00 00 00 	callq	43 <__ZNSt3__1L4moveINS_12basic_stringIcNS_11char_traitsIcEENS_9allocatorIcEEEEEERT_S8_>
100002575:	48 89 45 e0 	movq	%rax, -32(%rbp)
100002579:	e9 00 00 00 00 	jmp	0 <__ZNSt3__1L16move_if_noexceptINS_12basic_stringIcNS_11char_traitsIcEENS_9allocatorIcEEEEEERKT_RS7_+0x1e>
10000257e:	48 8b 45 e0 	movq	-32(%rbp), %rax
100002582:	48 83 c4 20 	addq	$32, %rsp
100002586:	5d 	popq	%rbp
100002587:	c3 	retq
100002588:	89 d1 	movl	%edx, %ecx
10000258a:	48 89 45 f0 	movq	%rax, -16(%rbp)
10000258e:	89 4d ec 	movl	%ecx, -20(%rbp)
100002591:	48 8b 7d f0 	movq	-16(%rbp), %rdi
100002595:	e8 fe 14 00 00 	callq	5374 <dyld_stub_binder+0x100003a98>
10000259a:	66 0f 1f 44 00 00 	nopw	(%rax,%rax)

__ZNSt3__1L4moveINS_12basic_stringIcNS_11char_traitsIcEENS_9allocatorIcEEEEEERT_S8_:
1000025a0:	55 	pushq	%rbp
1000025a1:	48 89 e5 	movq	%rsp, %rbp
1000025a4:	48 89 7d f8 	movq	%rdi, -8(%rbp)
1000025a8:	48 8b 45 f8 	movq	-8(%rbp), %rax
1000025ac:	5d 	popq	%rbp
1000025ad:	c3 	retq
1000025ae:	66 90 	nop

__ZNSt3__1L4moveIPNS_12basic_stringIcNS_11char_traitsIcEENS_9allocatorIcEEEEEERT_S9_:
1000025b0:	55 	pushq	%rbp
1000025b1:	48 89 e5 	movq	%rsp, %rbp
1000025b4:	48 89 7d f8 	movq	%rdi, -8(%rbp)
1000025b8:	48 8b 45 f8 	movq	-8(%rbp), %rax
1000025bc:	5d 	popq	%rbp
1000025bd:	c3 	retq
1000025be:	66 90 	nop

__ZNSt3__114__split_bufferINS_12basic_stringIcNS_11char_traitsIcEENS_9allocatorIcEEEERNS4_IS6_EEED2Ev:
1000025c0:	55 	pushq	%rbp
1000025c1:	48 89 e5 	movq	%rsp, %rbp
1000025c4:	48 83 ec 20 	subq	$32, %rsp
1000025c8:	48 89 7d f8 	movq	%rdi, -8(%rbp)
1000025cc:	48 8b 7d f8 	movq	-8(%rbp), %rdi
1000025d0:	48 89 7d f0 	movq	%rdi, -16(%rbp)
1000025d4:	e8 47 00 00 00 	callq	71 <__ZNSt3__114__split_bufferINS_12basic_stringIcNS_11char_traitsIcEENS_9allocatorIcEEEERNS4_IS6_EEE5clearEv>
1000025d9:	48 8b 7d f0 	movq	-16(%rbp), %rdi
1000025dd:	48 83 3f 00 	cmpq	$0, (%rdi)
1000025e1:	0f 84 2d 00 00 00 	je	45 <__ZNSt3__114__split_bufferINS_12basic_stringIcNS_11char_traitsIcEENS_9allocatorIcEEEERNS4_IS6_EEED2Ev+0x54>
1000025e7:	48 8b 7d f0 	movq	-16(%rbp), %rdi
1000025eb:	e8 50 fb ff ff 	callq	-1200 <__ZNSt3__114__split_bufferINS_12basic_stringIcNS_11char_traitsIcEENS_9allocatorIcEEEERNS4_IS6_EEE7__allocEv>
1000025f0:	48 8b 7d f0 	movq	-16(%rbp), %rdi
1000025f4:	48 8b 37 	movq	(%rdi), %rsi
1000025f7:	48 89 45 e8 	movq	%rax, -24(%rbp)
1000025fb:	48 89 75 e0 	movq	%rsi, -32(%rbp)
1000025ff:	e8 3c 00 00 00 	callq	60 <__ZNKSt3__114__split_bufferINS_12basic_stringIcNS_11char_traitsIcEENS_9allocatorIcEEEERNS4_IS6_EEE8capacityEv>
100002604:	48 8b 7d e8 	movq	-24(%rbp), %rdi
100002608:	48 8b 75 e0 	movq	-32(%rbp), %rsi
10000260c:	48 89 c2 	movq	%rax, %rdx
10000260f:	e8 cc f0 ff ff 	callq	-3892 <__ZNSt3__116allocator_traitsINS_9allocatorINS_12basic_stringIcNS_11char_traitsIcEENS1_IcEEEEEEE10deallocateERS7_PS6_m>
100002614:	48 83 c4 20 	addq	$32, %rsp
100002618:	5d 	popq	%rbp
100002619:	c3 	retq
10000261a:	66 0f 1f 44 00 00 	nopw	(%rax,%rax)

__ZNSt3__114__split_bufferINS_12basic_stringIcNS_11char_traitsIcEENS_9allocatorIcEEEERNS4_IS6_EEE5clearEv:
100002620:	55 	pushq	%rbp
100002621:	48 89 e5 	movq	%rsp, %rbp
100002624:	48 83 ec 10 	subq	$16, %rsp
100002628:	48 89 7d f8 	movq	%rdi, -8(%rbp)
10000262c:	48 8b 7d f8 	movq	-8(%rbp), %rdi
100002630:	48 8b 77 08 	movq	8(%rdi), %rsi
100002634:	e8 47 00 00 00 	callq	71 <__ZNSt3__114__split_bufferINS_12basic_stringIcNS_11char_traitsIcEENS_9allocatorIcEEEERNS4_IS6_EEE17__destruct_at_endEPS6_>
100002639:	48 83 c4 10 	addq	$16, %rsp
10000263d:	5d 	popq	%rbp
10000263e:	c3 	retq
10000263f:	90 	nop

__ZNKSt3__114__split_bufferINS_12basic_stringIcNS_11char_traitsIcEENS_9allocatorIcEEEERNS4_IS6_EEE8capacityEv:
100002640:	55 	pushq	%rbp
100002641:	48 89 e5 	movq	%rsp, %rbp
100002644:	48 83 ec 10 	subq	$16, %rsp
100002648:	48 89 7d f8 	movq	%rdi, -8(%rbp)
10000264c:	48 8b 7d f8 	movq	-8(%rbp), %rdi
100002650:	48 89 7d f0 	movq	%rdi, -16(%rbp)
100002654:	e8 d7 00 00 00 	callq	215 <__ZNKSt3__114__split_bufferINS_12basic_stringIcNS_11char_traitsIcEENS_9allocatorIcEEEERNS4_IS6_EEE9__end_capEv>
100002659:	48 8b 00 	movq	(%rax), %rax
10000265c:	48 8b 7d f0 	movq	-16(%rbp), %rdi
100002660:	48 8b 0f 	movq	(%rdi), %rcx
100002663:	48 29 c8 	subq	%rcx, %rax
100002666:	48 99 	cqto
100002668:	b9 18 00 00 00 	movl	$24, %ecx
10000266d:	48 f7 f9 	idivq	%rcx
100002670:	48 83 c4 10 	addq	$16, %rsp
100002674:	5d 	popq	%rbp
100002675:	c3 	retq
100002676:	66 2e 0f 1f 84 00 00 00 00 00 	nopw	%cs:(%rax,%rax)

__ZNSt3__114__split_bufferINS_12basic_stringIcNS_11char_traitsIcEENS_9allocatorIcEEEERNS4_IS6_EEE17__destruct_at_endEPS6_:
100002680:	55 	pushq	%rbp
100002681:	48 89 e5 	movq	%rsp, %rbp
100002684:	48 83 ec 20 	subq	$32, %rsp
100002688:	48 89 7d f8 	movq	%rdi, -8(%rbp)
10000268c:	48 89 75 f0 	movq	%rsi, -16(%rbp)
100002690:	48 8b 7d f8 	movq	-8(%rbp), %rdi
100002694:	48 8b 75 f0 	movq	-16(%rbp), %rsi
100002698:	e8 13 00 00 00 	callq	19 <__ZNSt3__114__split_bufferINS_12basic_stringIcNS_11char_traitsIcEENS_9allocatorIcEEEERNS4_IS6_EEE17__destruct_at_endEPS6_NS_17integral_constantIbLb0EEE>
10000269d:	48 83 c4 20 	addq	$32, %rsp
1000026a1:	5d 	popq	%rbp
1000026a2:	c3 	retq
1000026a3:	66 2e 0f 1f 84 00 00 00 00 00 	nopw	%cs:(%rax,%rax)
1000026ad:	0f 1f 00 	nopl	(%rax)

__ZNSt3__114__split_bufferINS_12basic_stringIcNS_11char_traitsIcEENS_9allocatorIcEEEERNS4_IS6_EEE17__destruct_at_endEPS6_NS_17integral_constantIbLb0EEE:
1000026b0:	55 	pushq	%rbp
1000026b1:	48 89 e5 	movq	%rsp, %rbp
1000026b4:	48 83 ec 40 	subq	$64, %rsp
1000026b8:	48 89 7d f0 	movq	%rdi, -16(%rbp)
1000026bc:	48 89 75 e8 	movq	%rsi, -24(%rbp)
1000026c0:	48 8b 75 f0 	movq	-16(%rbp), %rsi
1000026c4:	48 89 75 d0 	movq	%rsi, -48(%rbp)
1000026c8:	48 8b 45 e8 	movq	-24(%rbp), %rax
1000026cc:	48 8b 4d d0 	movq	-48(%rbp), %rcx
1000026d0:	48 3b 41 10 	cmpq	16(%rcx), %rax
1000026d4:	0f 84 4d 00 00 00 	je	77 <__ZNSt3__114__split_bufferINS_12basic_stringIcNS_11char_traitsIcEENS_9allocatorIcEEEERNS4_IS6_EEE17__destruct_at_endEPS6_NS_17integral_constantIbLb0EEE+0x77>
1000026da:	48 8b 7d d0 	movq	-48(%rbp), %rdi
1000026de:	e8 5d fa ff ff 	callq	-1443 <__ZNSt3__114__split_bufferINS_12basic_stringIcNS_11char_traitsIcEENS_9allocatorIcEEEERNS4_IS6_EEE7__allocEv>
1000026e3:	48 8b 7d d0 	movq	-48(%rbp), %rdi
1000026e7:	48 8b 4f 10 	movq	16(%rdi), %rcx
1000026eb:	48 83 c1 e8 	addq	$-24, %rcx
1000026ef:	48 89 4f 10 	movq	%rcx, 16(%rdi)
1000026f3:	48 89 cf 	movq	%rcx, %rdi
1000026f6:	48 89 45 c8 	movq	%rax, -56(%rbp)
1000026fa:	e8 21 ef ff ff 	callq	-4319 <__ZNSt3__1L16__to_raw_pointerINS_12basic_stringIcNS_11char_traitsIcEENS_9allocatorIcEEEEEEPT_S8_>
1000026ff:	48 8b 7d c8 	movq	-56(%rbp), %rdi
100002703:	48 89 c6 	movq	%rax, %rsi
100002706:	e8 b5 f0 ff ff 	callq	-3915 <__ZNSt3__116allocator_traitsINS_9allocatorINS_12basic_stringIcNS_11char_traitsIcEENS1_IcEEEEEEE7destroyIS6_EEvRS7_PT_>
10000270b:	e9 00 00 00 00 	jmp	0 <__ZNSt3__114__split_bufferINS_12basic_stringIcNS_11char_traitsIcEENS_9allocatorIcEEEERNS4_IS6_EEE17__destruct_at_endEPS6_NS_17integral_constantIbLb0EEE+0x60>
100002710:	e9 b3 ff ff ff 	jmp	-77 <__ZNSt3__114__split_bufferINS_12basic_stringIcNS_11char_traitsIcEENS_9allocatorIcEEEERNS4_IS6_EEE17__destruct_at_endEPS6_NS_17integral_constantIbLb0EEE+0x18>
100002715:	89 d1 	movl	%edx, %ecx
100002717:	48 89 45 e0 	movq	%rax, -32(%rbp)
10000271b:	89 4d dc 	movl	%ecx, -36(%rbp)
10000271e:	48 8b 7d e0 	movq	-32(%rbp), %rdi
100002722:	e8 71 13 00 00 	callq	4977 <dyld_stub_binder+0x100003a98>
100002727:	48 83 c4 40 	addq	$64, %rsp
10000272b:	5d 	popq	%rbp
10000272c:	c3 	retq
10000272d:	0f 1f 00 	nopl	(%rax)

__ZNKSt3__114__split_bufferINS_12basic_stringIcNS_11char_traitsIcEENS_9allocatorIcEEEERNS4_IS6_EEE9__end_capEv:
100002730:	55 	pushq	%rbp
100002731:	48 89 e5 	movq	%rsp, %rbp
100002734:	48 83 ec 10 	subq	$16, %rsp
100002738:	48 89 7d f8 	movq	%rdi, -8(%rbp)
10000273c:	48 8b 7d f8 	movq	-8(%rbp), %rdi
100002740:	48 83 c7 18 	addq	$24, %rdi
100002744:	e8 07 00 00 00 	callq	7 <__ZNKSt3__117__compressed_pairIPNS_12basic_stringIcNS_11char_traitsIcEENS_9allocatorIcEEEERNS4_IS6_EEE5firstEv>
100002749:	48 83 c4 10 	addq	$16, %rsp
10000274d:	5d 	popq	%rbp
10000274e:	c3 	retq
10000274f:	90 	nop

__ZNKSt3__117__compressed_pairIPNS_12basic_stringIcNS_11char_traitsIcEENS_9allocatorIcEEEERNS4_IS6_EEE5firstEv:
100002750:	55 	pushq	%rbp
100002751:	48 89 e5 	movq	%rsp, %rbp
100002754:	48 83 ec 10 	subq	$16, %rsp
100002758:	48 89 7d f8 	movq	%rdi, -8(%rbp)
10000275c:	48 8b 7d f8 	movq	-8(%rbp), %rdi
100002760:	e8 4b ef ff ff 	callq	-4277 <__ZNKSt3__122__compressed_pair_elemIPNS_12basic_stringIcNS_11char_traitsIcEENS_9allocatorIcEEEELi0ELb0EE5__getEv>
100002765:	48 83 c4 10 	addq	$16, %rsp
100002769:	5d 	popq	%rbp
10000276a:	c3 	retq
10000276b:	0f 1f 44 00 00 	nopl	(%rax,%rax)

__ZNSt3__112basic_stringIcNS_11char_traitsIcEENS_9allocatorIcEEEC2INS_9nullptr_tEEEPKc:
100002770:	55 	pushq	%rbp
100002771:	48 89 e5 	movq	%rsp, %rbp
100002774:	48 83 ec 20 	subq	$32, %rsp
100002778:	48 89 7d f8 	movq	%rdi, -8(%rbp)
10000277c:	48 89 75 f0 	movq	%rsi, -16(%rbp)
100002780:	48 8b 75 f8 	movq	-8(%rbp), %rsi
100002784:	48 89 f7 	movq	%rsi, %rdi
100002787:	48 89 75 e8 	movq	%rsi, -24(%rbp)
10000278b:	e8 30 00 00 00 	callq	48 <__ZNSt3__117__compressed_pairINS_12basic_stringIcNS_11char_traitsIcEENS_9allocatorIcEEE5__repES5_EC1Ev>
100002790:	48 8b 75 f0 	movq	-16(%rbp), %rsi
100002794:	48 8b 7d f0 	movq	-16(%rbp), %rdi
100002798:	48 89 75 e0 	movq	%rsi, -32(%rbp)
10000279c:	e8 43 12 00 00 	callq	4675 <dyld_stub_binder+0x1000039e4>
1000027a1:	48 8b 7d e8 	movq	-24(%rbp), %rdi
1000027a5:	48 8b 75 e0 	movq	-32(%rbp), %rsi
1000027a9:	48 89 c2 	movq	%rax, %rdx
1000027ac:	e8 39 12 00 00 	callq	4665 <dyld_stub_binder+0x1000039ea>
1000027b1:	48 83 c4 20 	addq	$32, %rsp
1000027b5:	5d 	popq	%rbp
1000027b6:	c3 	retq
1000027b7:	66 0f 1f 84 00 00 00 00 00 	nopw	(%rax,%rax)

__ZNSt3__117__compressed_pairINS_12basic_stringIcNS_11char_traitsIcEENS_9allocatorIcEEE5__repES5_EC1Ev:
1000027c0:	55 	pushq	%rbp
1000027c1:	48 89 e5 	movq	%rsp, %rbp
1000027c4:	48 83 ec 10 	subq	$16, %rsp
1000027c8:	48 89 7d f8 	movq	%rdi, -8(%rbp)
1000027cc:	48 8b 7d f8 	movq	-8(%rbp), %rdi
1000027d0:	e8 2b 00 00 00 	callq	43 <__ZNSt3__117__compressed_pairINS_12basic_stringIcNS_11char_traitsIcEENS_9allocatorIcEEE5__repES5_EC2Ev>
1000027d5:	48 83 c4 10 	addq	$16, %rsp
1000027d9:	5d 	popq	%rbp
1000027da:	c3 	retq
1000027db:	0f 1f 44 00 00 	nopl	(%rax,%rax)

__ZNSt3__111char_traitsIcE6lengthEPKc:
1000027e0:	55 	pushq	%rbp
1000027e1:	48 89 e5 	movq	%rsp, %rbp
1000027e4:	48 83 ec 10 	subq	$16, %rsp
1000027e8:	48 89 7d f8 	movq	%rdi, -8(%rbp)
1000027ec:	48 8b 7d f8 	movq	-8(%rbp), %rdi
1000027f0:	e8 c1 12 00 00 	callq	4801 <dyld_stub_binder+0x100003ab6>
1000027f5:	48 83 c4 10 	addq	$16, %rsp
1000027f9:	5d 	popq	%rbp
1000027fa:	c3 	retq
1000027fb:	0f 1f 44 00 00 	nopl	(%rax,%rax)

__ZNSt3__117__compressed_pairINS_12basic_stringIcNS_11char_traitsIcEENS_9allocatorIcEEE5__repES5_EC2Ev:
100002800:	55 	pushq	%rbp
100002801:	48 89 e5 	movq	%rsp, %rbp
100002804:	48 83 ec 10 	subq	$16, %rsp
100002808:	48 89 7d f8 	movq	%rdi, -8(%rbp)
10000280c:	48 8b 7d f8 	movq	-8(%rbp), %rdi
100002810:	48 89 f8 	movq	%rdi, %rax
100002813:	48 89 7d f0 	movq	%rdi, -16(%rbp)
100002817:	48 89 c7 	movq	%rax, %rdi
10000281a:	e8 21 00 00 00 	callq	33 <__ZNSt3__122__compressed_pair_elemINS_12basic_stringIcNS_11char_traitsIcEENS_9allocatorIcEEE5__repELi0ELb0EEC2Ev>
10000281f:	48 8b 45 f0 	movq	-16(%rbp), %rax
100002823:	48 89 c7 	movq	%rax, %rdi
100002826:	e8 45 00 00 00 	callq	69 <__ZNSt3__122__compressed_pair_elemINS_9allocatorIcEELi1ELb1EEC2Ev>
10000282b:	48 83 c4 10 	addq	$16, %rsp
10000282f:	5d 	popq	%rbp
100002830:	c3 	retq
100002831:	66 2e 0f 1f 84 00 00 00 00 00 	nopw	%cs:(%rax,%rax)
10000283b:	0f 1f 44 00 00 	nopl	(%rax,%rax)

__ZNSt3__122__compressed_pair_elemINS_12basic_stringIcNS_11char_traitsIcEENS_9allocatorIcEEE5__repELi0ELb0EEC2Ev:
100002840:	55 	pushq	%rbp
100002841:	48 89 e5 	movq	%rsp, %rbp
100002844:	48 83 ec 10 	subq	$16, %rsp
100002848:	31 f6 	xorl	%esi, %esi
10000284a:	48 89 7d f8 	movq	%rdi, -8(%rbp)
10000284e:	48 8b 7d f8 	movq	-8(%rbp), %rdi
100002852:	ba 18 00 00 00 	movl	$24, %edx
100002857:	e8 54 12 00 00 	callq	4692 <dyld_stub_binder+0x100003ab0>
10000285c:	48 83 c4 10 	addq	$16, %rsp
100002860:	5d 	popq	%rbp
100002861:	c3 	retq
100002862:	66 2e 0f 1f 84 00 00 00 00 00 	nopw	%cs:(%rax,%rax)
10000286c:	0f 1f 40 00 	nopl	(%rax)

__ZNSt3__122__compressed_pair_elemINS_9allocatorIcEELi1ELb1EEC2Ev:
100002870:	55 	pushq	%rbp
100002871:	48 89 e5 	movq	%rsp, %rbp
100002874:	48 83 ec 10 	subq	$16, %rsp
100002878:	48 89 7d f8 	movq	%rdi, -8(%rbp)
10000287c:	48 8b 7d f8 	movq	-8(%rbp), %rdi
100002880:	e8 0b 00 00 00 	callq	11 <__ZNSt3__19allocatorIcEC2Ev>
100002885:	48 83 c4 10 	addq	$16, %rsp
100002889:	5d 	popq	%rbp
10000288a:	c3 	retq
10000288b:	0f 1f 44 00 00 	nopl	(%rax,%rax)

__ZNSt3__19allocatorIcEC2Ev:
100002890:	55 	pushq	%rbp
100002891:	48 89 e5 	movq	%rsp, %rbp
100002894:	48 89 7d f8 	movq	%rdi, -8(%rbp)
100002898:	5d 	popq	%rbp
100002899:	c3 	retq
10000289a:	66 0f 1f 44 00 00 	nopw	(%rax,%rax)

__ZNSt3__16vectorINS_12basic_stringIcNS_11char_traitsIcEENS_9allocatorIcEEEENS4_IS6_EEEC2ERKS8_:
1000028a0:	55 	pushq	%rbp
1000028a1:	48 89 e5 	movq	%rsp, %rbp
1000028a4:	48 83 ec 50 	subq	$80, %rsp
1000028a8:	48 89 7d f8 	movq	%rdi, -8(%rbp)
1000028ac:	48 89 75 f0 	movq	%rsi, -16(%rbp)
1000028b0:	48 8b 75 f8 	movq	-8(%rbp), %rsi
1000028b4:	48 89 f7 	movq	%rsi, %rdi
1000028b7:	48 8b 45 f0 	movq	-16(%rbp), %rax
1000028bb:	48 89 7d c0 	movq	%rdi, -64(%rbp)
1000028bf:	48 89 c7 	movq	%rax, %rdi
1000028c2:	48 89 75 b8 	movq	%rsi, -72(%rbp)
1000028c6:	e8 b5 f5 ff ff 	callq	-2635 <__ZNKSt3__113__vector_baseINS_12basic_stringIcNS_11char_traitsIcEENS_9allocatorIcEEEENS4_IS6_EEE7__allocEv>
1000028cb:	48 89 c7 	movq	%rax, %rdi
1000028ce:	e8 9d 00 00 00 	callq	157 <__ZNSt3__116allocator_traitsINS_9allocatorINS_12basic_stringIcNS_11char_traitsIcEENS1_IcEEEEEEE37select_on_container_copy_constructionERKS7_>
1000028d3:	48 8b 7d c0 	movq	-64(%rbp), %rdi
1000028d7:	48 8d 75 e8 	leaq	-24(%rbp), %rsi
1000028db:	e8 b0 00 00 00 	callq	176 <__ZNSt3__113__vector_baseINS_12basic_stringIcNS_11char_traitsIcEENS_9allocatorIcEEEENS4_IS6_EEEC2ERKS7_>
1000028e0:	48 8b 7d f0 	movq	-16(%rbp), %rdi
1000028e4:	e8 37 e5 ff ff 	callq	-6857 <__ZNKSt3__16vectorINS_12basic_stringIcNS_11char_traitsIcEENS_9allocatorIcEEEENS4_IS6_EEE4sizeEv>
1000028e9:	48 89 45 d8 	movq	%rax, -40(%rbp)
1000028ed:	48 83 7d d8 00 	cmpq	$0, -40(%rbp)
1000028f2:	0f 86 4b 00 00 00 	jbe	75 <__ZNSt3__16vectorINS_12basic_stringIcNS_11char_traitsIcEENS_9allocatorIcEEEENS4_IS6_EEEC2ERKS8_+0xa3>
1000028f8:	48 8b 75 d8 	movq	-40(%rbp), %rsi
1000028fc:	48 8b 7d b8 	movq	-72(%rbp), %rdi
100002900:	e8 3f 11 00 00 	callq	4415 <dyld_stub_binder+0x100003a44>
100002905:	e9 00 00 00 00 	jmp	0 <__ZNSt3__16vectorINS_12basic_stringIcNS_11char_traitsIcEENS_9allocatorIcEEEENS4_IS6_EEEC2ERKS8_+0x6a>
10000290a:	48 8b 45 f0 	movq	-16(%rbp), %rax
10000290e:	48 8b 30 	movq	(%rax), %rsi
100002911:	48 8b 50 08 	movq	8(%rax), %rdx
100002915:	48 8b 4d d8 	movq	-40(%rbp), %rcx
100002919:	48 8b 7d b8 	movq	-72(%rbp), %rdi
10000291d:	e8 28 11 00 00 	callq	4392 <dyld_stub_binder+0x100003a4a>
100002922:	e9 00 00 00 00 	jmp	0 <__ZNSt3__16vectorINS_12basic_stringIcNS_11char_traitsIcEENS_9allocatorIcEEEENS4_IS6_EEEC2ERKS8_+0x87>
100002927:	e9 17 00 00 00 	jmp	23 <__ZNSt3__16vectorINS_12basic_stringIcNS_11char_traitsIcEENS_9allocatorIcEEEENS4_IS6_EEEC2ERKS8_+0xa3>
10000292c:	89 d1 	movl	%edx, %ecx
10000292e:	48 89 45 d0 	movq	%rax, -48(%rbp)
100002932:	89 4d cc 	movl	%ecx, -52(%rbp)
100002935:	48 8b 7d b8 	movq	-72(%rbp), %rdi
100002939:	e8 02 ec ff ff 	callq	-5118 <__ZNSt3__113__vector_baseINS_12basic_stringIcNS_11char_traitsIcEENS_9allocatorIcEEEENS4_IS6_EEED2Ev>
10000293e:	e9 06 00 00 00 	jmp	6 <__ZNSt3__16vectorINS_12basic_stringIcNS_11char_traitsIcEENS_9allocatorIcEEEENS4_IS6_EEEC2ERKS8_+0xa9>
100002943:	48 83 c4 50 	addq	$80, %rsp
100002947:	5d 	popq	%rbp
100002948:	c3 	retq
100002949:	e9 00 00 00 00 	jmp	0 <__ZNSt3__16vectorINS_12basic_stringIcNS_11char_traitsIcEENS_9allocatorIcEEEENS4_IS6_EEEC2ERKS8_+0xae>
10000294e:	48 8b 7d d0 	movq	-48(%rbp), %rdi
100002952:	e8 5d 10 00 00 	callq	4189 <dyld_stub_binder+0x1000039b4>
100002957:	0f 0b 	ud2
100002959:	48 89 c7 	movq	%rax, %rdi
10000295c:	48 89 55 b0 	movq	%rdx, -80(%rbp)
100002960:	e8 8b e4 ff ff 	callq	-7029 <___clang_call_terminate>
100002965:	66 2e 0f 1f 84 00 00 00 00 00 	nopw	%cs:(%rax,%rax)
10000296f:	90 	nop

__ZNSt3__116allocator_traitsINS_9allocatorINS_12basic_stringIcNS_11char_traitsIcEENS1_IcEEEEEEE37select_on_container_copy_constructionERKS7_:
100002970:	55 	pushq	%rbp
100002971:	48 89 e5 	movq	%rsp, %rbp
100002974:	48 83 ec 30 	subq	$48, %rsp
100002978:	48 89 7d f0 	movq	%rdi, -16(%rbp)
10000297c:	48 8b 7d f0 	movq	-16(%rbp), %rdi
100002980:	e8 9b 01 00 00 	callq	411 <__ZNSt3__116allocator_traitsINS_9allocatorINS_12basic_stringIcNS_11char_traitsIcEENS1_IcEEEEEEE39__select_on_container_copy_constructionENS_17integral_constantIbLb0EEERKS7_>
100002985:	48 83 c4 30 	addq	$48, %rsp
100002989:	5d 	popq	%rbp
10000298a:	c3 	retq
10000298b:	0f 1f 44 00 00 	nopl	(%rax,%rax)

__ZNSt3__113__vector_baseINS_12basic_stringIcNS_11char_traitsIcEENS_9allocatorIcEEEENS4_IS6_EEEC2ERKS7_:
100002990:	55 	pushq	%rbp
100002991:	48 89 e5 	movq	%rsp, %rbp
100002994:	48 83 ec 40 	subq	$64, %rsp
100002998:	48 89 7d f8 	movq	%rdi, -8(%rbp)
10000299c:	48 89 75 f0 	movq	%rsi, -16(%rbp)
1000029a0:	48 8b 75 f8 	movq	-8(%rbp), %rsi
1000029a4:	48 89 f7 	movq	%rsi, %rdi
1000029a7:	48 89 75 c8 	movq	%rsi, -56(%rbp)
1000029ab:	e8 c0 e8 ff ff 	callq	-5952 <__ZNSt3__120__vector_base_commonILb1EEC2Ev>
1000029b0:	e8 cb e8 ff ff 	callq	-5941 <__ZNSt3__1L15__get_nullptr_tEv>
1000029b5:	48 89 45 e8 	movq	%rax, -24(%rbp)
1000029b9:	48 8d 7d e8 	leaq	-24(%rbp), %rdi
1000029bd:	e8 ee e8 ff ff 	callq	-5906 <__ZNKSt3__19nullptr_tcvPT_INS_12basic_stringIcNS_11char_traitsIcEENS_9allocatorIcEEEEEEv>
1000029c2:	48 8b 75 c8 	movq	-56(%rbp), %rsi
1000029c6:	48 89 06 	movq	%rax, (%rsi)
1000029c9:	e8 b2 e8 ff ff 	callq	-5966 <__ZNSt3__1L15__get_nullptr_tEv>
1000029ce:	48 89 45 e0 	movq	%rax, -32(%rbp)
1000029d2:	48 8d 7d e0 	leaq	-32(%rbp), %rdi
1000029d6:	e8 d5 e8 ff ff 	callq	-5931 <__ZNKSt3__19nullptr_tcvPT_INS_12basic_stringIcNS_11char_traitsIcEENS_9allocatorIcEEEEEEv>
1000029db:	48 8b 75 c8 	movq	-56(%rbp), %rsi
1000029df:	48 89 46 08 	movq	%rax, 8(%rsi)
1000029e3:	48 83 c6 10 	addq	$16, %rsi
1000029e7:	48 89 75 c0 	movq	%rsi, -64(%rbp)
1000029eb:	e8 90 e8 ff ff 	callq	-6000 <__ZNSt3__1L15__get_nullptr_tEv>
1000029f0:	48 89 45 d8 	movq	%rax, -40(%rbp)
1000029f4:	48 8d 7d d8 	leaq	-40(%rbp), %rdi
1000029f8:	e8 b3 e8 ff ff 	callq	-5965 <__ZNKSt3__19nullptr_tcvPT_INS_12basic_stringIcNS_11char_traitsIcEENS_9allocatorIcEEEEEEv>
1000029fd:	48 8b 7d c0 	movq	-64(%rbp), %rdi
100002a01:	48 89 c6 	movq	%rax, %rsi
100002a04:	e8 27 01 00 00 	callq	295 <__ZNSt3__117__compressed_pairIPNS_12basic_stringIcNS_11char_traitsIcEENS_9allocatorIcEEEENS4_IS6_EEEC1ES7_S8_>
100002a09:	48 83 c4 40 	addq	$64, %rsp
100002a0d:	5d 	popq	%rbp
100002a0e:	c3 	retq
100002a0f:	90 	nop

__ZNSt3__16vectorINS_12basic_stringIcNS_11char_traitsIcEENS_9allocatorIcEEEENS4_IS6_EEE11__vallocateEm:
100002a10:	55 	pushq	%rbp
100002a11:	48 89 e5 	movq	%rsp, %rbp
100002a14:	48 83 ec 30 	subq	$48, %rsp
100002a18:	48 89 7d f8 	movq	%rdi, -8(%rbp)
100002a1c:	48 89 75 f0 	movq	%rsi, -16(%rbp)
100002a20:	48 8b 75 f8 	movq	-8(%rbp), %rsi
100002a24:	48 8b 7d f0 	movq	-16(%rbp), %rdi
100002a28:	48 89 7d e8 	movq	%rdi, -24(%rbp)
100002a2c:	48 89 f7 	movq	%rsi, %rdi
100002a2f:	48 89 75 e0 	movq	%rsi, -32(%rbp)
100002a33:	e8 8e 0f 00 00 	callq	3982 <dyld_stub_binder+0x1000039c6>
100002a38:	48 8b 75 e8 	movq	-24(%rbp), %rsi
100002a3c:	48 39 c6 	cmpq	%rax, %rsi
100002a3f:	0f 86 09 00 00 00 	jbe	9 <__ZNSt3__16vectorINS_12basic_stringIcNS_11char_traitsIcEENS_9allocatorIcEEEENS4_IS6_EEE11__vallocateEm+0x3e>
100002a45:	48 8b 7d e0 	movq	-32(%rbp), %rdi
100002a49:	e8 6c 0f 00 00 	callq	3948 <dyld_stub_binder+0x1000039ba>
100002a4e:	48 8b 45 e0 	movq	-32(%rbp), %rax
100002a52:	48 89 c7 	movq	%rax, %rdi
100002a55:	e8 b6 ec ff ff 	callq	-4938 <__ZNSt3__113__vector_baseINS_12basic_stringIcNS_11char_traitsIcEENS_9allocatorIcEEEENS4_IS6_EEE7__allocEv>
100002a5a:	48 8b 75 f0 	movq	-16(%rbp), %rsi
100002a5e:	48 89 c7 	movq	%rax, %rdi
100002a61:	e8 aa f6 ff ff 	callq	-2390 <__ZNSt3__116allocator_traitsINS_9allocatorINS_12basic_stringIcNS_11char_traitsIcEENS1_IcEEEEEEE8allocateERS7_m>
100002a66:	48 8b 75 e0 	movq	-32(%rbp), %rsi
100002a6a:	48 89 46 08 	movq	%rax, 8(%rsi)
100002a6e:	48 89 06 	movq	%rax, (%rsi)
100002a71:	48 8b 06 	movq	(%rsi), %rax
100002a74:	48 6b 7d f0 18 	imulq	$24, -16(%rbp), %rdi
100002a79:	48 01 f8 	addq	%rdi, %rax
100002a7c:	48 89 f7 	movq	%rsi, %rdi
100002a7f:	48 89 45 d8 	movq	%rax, -40(%rbp)
100002a83:	e8 e8 ee ff ff 	callq	-4376 <__ZNSt3__113__vector_baseINS_12basic_stringIcNS_11char_traitsIcEENS_9allocatorIcEEEENS4_IS6_EEE9__end_capEv>
100002a88:	31 c9 	xorl	%ecx, %ecx
100002a8a:	89 ce 	movl	%ecx, %esi
100002a8c:	48 8b 7d d8 	movq	-40(%rbp), %rdi
100002a90:	48 89 38 	movq	%rdi, (%rax)
100002a93:	48 8b 7d e0 	movq	-32(%rbp), %rdi
100002a97:	e8 14 fa ff ff 	callq	-1516 <__ZNKSt3__16vectorINS_12basic_stringIcNS_11char_traitsIcEENS_9allocatorIcEEEENS4_IS6_EEE14__annotate_newEm>
100002a9c:	48 83 c4 30 	addq	$48, %rsp
100002aa0:	5d 	popq	%rbp
100002aa1:	c3 	retq
100002aa2:	66 2e 0f 1f 84 00 00 00 00 00 	nopw	%cs:(%rax,%rax)
100002aac:	0f 1f 40 00 	nopl	(%rax)

__ZNSt3__16vectorINS_12basic_stringIcNS_11char_traitsIcEENS_9allocatorIcEEEENS4_IS6_EEE18__construct_at_endIPS6_EENS_9enable_ifIXsr21__is_forward_iteratorIT_EE5valueEvE4typeESC_SC_m:
100002ab0:	55 	pushq	%rbp
100002ab1:	48 89 e5 	movq	%rsp, %rbp
100002ab4:	48 83 ec 40 	subq	$64, %rsp
100002ab8:	48 89 7d f8 	movq	%rdi, -8(%rbp)
100002abc:	48 89 75 f0 	movq	%rsi, -16(%rbp)
100002ac0:	48 89 55 e8 	movq	%rdx, -24(%rbp)
100002ac4:	48 89 4d e0 	movq	%rcx, -32(%rbp)
100002ac8:	48 8b 4d f8 	movq	-8(%rbp), %rcx
100002acc:	48 89 ca 	movq	%rcx, %rdx
100002acf:	48 89 d7 	movq	%rdx, %rdi
100002ad2:	48 89 4d c8 	movq	%rcx, -56(%rbp)
100002ad6:	e8 35 ec ff ff 	callq	-5067 <__ZNSt3__113__vector_baseINS_12basic_stringIcNS_11char_traitsIcEENS_9allocatorIcEEEENS4_IS6_EEE7__allocEv>
100002adb:	48 89 45 d8 	movq	%rax, -40(%rbp)
100002adf:	48 8b 55 e0 	movq	-32(%rbp), %rdx
100002ae3:	48 8d 7d d0 	leaq	-48(%rbp), %rdi
100002ae7:	48 8b 75 c8 	movq	-56(%rbp), %rsi
100002aeb:	e8 a0 ee ff ff 	callq	-4448 <__ZNSt3__16vectorINS_12basic_stringIcNS_11char_traitsIcEENS_9allocatorIcEEEENS4_IS6_EEE24__RAII_IncreaseAnnotatorC1ERKS8_m>
100002af0:	48 8b 7d d8 	movq	-40(%rbp), %rdi
100002af4:	48 8b 75 f0 	movq	-16(%rbp), %rsi
100002af8:	48 8b 55 e8 	movq	-24(%rbp), %rdx
100002afc:	48 8b 45 c8 	movq	-56(%rbp), %rax
100002b00:	48 83 c0 08 	addq	$8, %rax
100002b04:	48 89 c1 	movq	%rax, %rcx
100002b07:	e8 e4 00 00 00 	callq	228 <__ZNSt3__116allocator_traitsINS_9allocatorINS_12basic_stringIcNS_11char_traitsIcEENS1_IcEEEEEEE25__construct_range_forwardIPS6_SA_EEvRS7_T_SC_RT0_>
100002b0c:	48 8d 7d d0 	leaq	-48(%rbp), %rdi
100002b10:	e8 db ee ff ff 	callq	-4389 <__ZNSt3__16vectorINS_12basic_stringIcNS_11char_traitsIcEENS_9allocatorIcEEEENS4_IS6_EEE24__RAII_IncreaseAnnotator6__doneEv>
100002b15:	48 83 c4 40 	addq	$64, %rsp
100002b19:	5d 	popq	%rbp
100002b1a:	c3 	retq
100002b1b:	0f 1f 44 00 00 	nopl	(%rax,%rax)

__ZNSt3__116allocator_traitsINS_9allocatorINS_12basic_stringIcNS_11char_traitsIcEENS1_IcEEEEEEE39__select_on_container_copy_constructionENS_17integral_constantIbLb0EEERKS7_:
100002b20:	55 	pushq	%rbp
100002b21:	48 89 e5 	movq	%rsp, %rbp
100002b24:	48 89 7d e8 	movq	%rdi, -24(%rbp)
100002b28:	5d 	popq	%rbp
100002b29:	c3 	retq
100002b2a:	66 0f 1f 44 00 00 	nopw	(%rax,%rax)

__ZNSt3__117__compressed_pairIPNS_12basic_stringIcNS_11char_traitsIcEENS_9allocatorIcEEEENS4_IS6_EEEC1ES7_S8_:
100002b30:	55 	pushq	%rbp
100002b31:	48 89 e5 	movq	%rsp, %rbp
100002b34:	48 83 ec 20 	subq	$32, %rsp
100002b38:	48 89 7d f0 	movq	%rdi, -16(%rbp)
100002b3c:	48 89 75 e8 	movq	%rsi, -24(%rbp)
100002b40:	48 8b 7d f0 	movq	-16(%rbp), %rdi
100002b44:	48 8b 75 e8 	movq	-24(%rbp), %rsi
100002b48:	e8 13 00 00 00 	callq	19 <__ZNSt3__117__compressed_pairIPNS_12basic_stringIcNS_11char_traitsIcEENS_9allocatorIcEEEENS4_IS6_EEEC2ES7_S8_>
100002b4d:	48 83 c4 20 	addq	$32, %rsp
100002b51:	5d 	popq	%rbp
100002b52:	c3 	retq
100002b53:	66 2e 0f 1f 84 00 00 00 00 00 	nopw	%cs:(%rax,%rax)
100002b5d:	0f 1f 00 	nopl	(%rax)

__ZNSt3__117__compressed_pairIPNS_12basic_stringIcNS_11char_traitsIcEENS_9allocatorIcEEEENS4_IS6_EEEC2ES7_S8_:
100002b60:	55 	pushq	%rbp
100002b61:	48 89 e5 	movq	%rsp, %rbp
100002b64:	48 83 ec 40 	subq	$64, %rsp
100002b68:	48 89 7d f0 	movq	%rdi, -16(%rbp)
100002b6c:	48 89 75 e8 	movq	%rsi, -24(%rbp)
100002b70:	48 8b 75 f0 	movq	-16(%rbp), %rsi
100002b74:	48 89 f7 	movq	%rsi, %rdi
100002b77:	48 8d 45 e8 	leaq	-24(%rbp), %rax
100002b7b:	48 89 7d d8 	movq	%rdi, -40(%rbp)
100002b7f:	48 89 c7 	movq	%rax, %rdi
100002b82:	48 89 75 d0 	movq	%rsi, -48(%rbp)
100002b86:	e8 05 e8 ff ff 	callq	-6139 <__ZNSt3__1L7forwardIPNS_12basic_stringIcNS_11char_traitsIcEENS_9allocatorIcEEEEEERT_RNS_16remove_referenceIS8_E4typeE>
100002b8b:	48 8b 30 	movq	(%rax), %rsi
100002b8e:	48 8b 7d d8 	movq	-40(%rbp), %rdi
100002b92:	e8 09 e8 ff ff 	callq	-6135 <__ZNSt3__122__compressed_pair_elemIPNS_12basic_stringIcNS_11char_traitsIcEENS_9allocatorIcEEEELi0ELb0EEC2ES7_>
100002b97:	48 8b 45 d0 	movq	-48(%rbp), %rax
100002b9b:	48 8d 7d f8 	leaq	-8(%rbp), %rdi
100002b9f:	48 89 45 c8 	movq	%rax, -56(%rbp)
100002ba3:	e8 18 00 00 00 	callq	24 <__ZNSt3__1L7forwardINS_9allocatorINS_12basic_stringIcNS_11char_traitsIcEENS1_IcEEEEEEEERT_RNS_16remove_referenceIS8_E4typeE>
100002ba8:	48 8b 7d c8 	movq	-56(%rbp), %rdi
100002bac:	48 89 45 c0 	movq	%rax, -64(%rbp)
100002bb0:	e8 1b 00 00 00 	callq	27 <__ZNSt3__122__compressed_pair_elemINS_9allocatorINS_12basic_stringIcNS_11char_traitsIcEENS1_IcEEEEEELi1ELb1EEC2ES7_>
100002bb5:	48 83 c4 40 	addq	$64, %rsp
100002bb9:	5d 	popq	%rbp
100002bba:	c3 	retq
100002bbb:	0f 1f 44 00 00 	nopl	(%rax,%rax)

__ZNSt3__1L7forwardINS_9allocatorINS_12basic_stringIcNS_11char_traitsIcEENS1_IcEEEEEEEERT_RNS_16remove_referenceIS8_E4typeE:
100002bc0:	55 	pushq	%rbp
100002bc1:	48 89 e5 	movq	%rsp, %rbp
100002bc4:	48 89 7d f8 	movq	%rdi, -8(%rbp)
100002bc8:	48 8b 45 f8 	movq	-8(%rbp), %rax
100002bcc:	5d 	popq	%rbp
100002bcd:	c3 	retq
100002bce:	66 90 	nop

__ZNSt3__122__compressed_pair_elemINS_9allocatorINS_12basic_stringIcNS_11char_traitsIcEENS1_IcEEEEEELi1ELb1EEC2ES7_:
100002bd0:	55 	pushq	%rbp
100002bd1:	48 89 e5 	movq	%rsp, %rbp
100002bd4:	48 83 ec 20 	subq	$32, %rsp
100002bd8:	48 89 7d f0 	movq	%rdi, -16(%rbp)
100002bdc:	48 8d 7d f8 	leaq	-8(%rbp), %rdi
100002be0:	e8 db ff ff ff 	callq	-37 <__ZNSt3__1L7forwardINS_9allocatorINS_12basic_stringIcNS_11char_traitsIcEENS1_IcEEEEEEEERT_RNS_16remove_referenceIS8_E4typeE>
100002be5:	48 89 45 e8 	movq	%rax, -24(%rbp)
100002be9:	48 83 c4 20 	addq	$32, %rsp
100002bed:	5d 	popq	%rbp
100002bee:	c3 	retq
100002bef:	90 	nop

__ZNSt3__116allocator_traitsINS_9allocatorINS_12basic_stringIcNS_11char_traitsIcEENS1_IcEEEEEEE25__construct_range_forwardIPS6_SA_EEvRS7_T_SC_RT0_:
100002bf0:	55 	pushq	%rbp
100002bf1:	48 89 e5 	movq	%rsp, %rbp
100002bf4:	48 83 ec 30 	subq	$48, %rsp
100002bf8:	48 89 7d f8 	movq	%rdi, -8(%rbp)
100002bfc:	48 89 75 f0 	movq	%rsi, -16(%rbp)
100002c00:	48 89 55 e8 	movq	%rdx, -24(%rbp)
100002c04:	48 89 4d e0 	movq	%rcx, -32(%rbp)
100002c08:	48 8b 45 f0 	movq	-16(%rbp), %rax
100002c0c:	48 3b 45 e8 	cmpq	-24(%rbp), %rax
100002c10:	0f 84 46 00 00 00 	je	70 <__ZNSt3__116allocator_traitsINS_9allocatorINS_12basic_stringIcNS_11char_traitsIcEENS1_IcEEEEEEE25__construct_range_forwardIPS6_SA_EEvRS7_T_SC_RT0_+0x6c>
100002c16:	48 8b 7d f8 	movq	-8(%rbp), %rdi
100002c1a:	48 8b 45 e0 	movq	-32(%rbp), %rax
100002c1e:	48 8b 00 	movq	(%rax), %rax
100002c21:	48 89 7d d8 	movq	%rdi, -40(%rbp)
100002c25:	48 89 c7 	movq	%rax, %rdi
100002c28:	e8 f3 e9 ff ff 	callq	-5645 <__ZNSt3__1L16__to_raw_pointerINS_12basic_stringIcNS_11char_traitsIcEENS_9allocatorIcEEEEEEPT_S8_>
100002c2d:	48 8b 55 f0 	movq	-16(%rbp), %rdx
100002c31:	48 8b 7d d8 	movq	-40(%rbp), %rdi
100002c35:	48 89 c6 	movq	%rax, %rsi
100002c38:	e8 83 ed ff ff 	callq	-4733 <__ZNSt3__116allocator_traitsINS_9allocatorINS_12basic_stringIcNS_11char_traitsIcEENS1_IcEEEEEEE9constructIS6_S6_EEvRS7_PT_RKT0_>
100002c3d:	48 8b 45 f0 	movq	-16(%rbp), %rax
100002c41:	48 83 c0 18 	addq	$24, %rax
100002c45:	48 89 45 f0 	movq	%rax, -16(%rbp)
100002c49:	48 8b 45 e0 	movq	-32(%rbp), %rax
100002c4d:	48 8b 08 	movq	(%rax), %rcx
100002c50:	48 83 c1 18 	addq	$24, %rcx
100002c54:	48 89 08 	movq	%rcx, (%rax)
100002c57:	e9 ac ff ff ff 	jmp	-84 <__ZNSt3__116allocator_traitsINS_9allocatorINS_12basic_stringIcNS_11char_traitsIcEENS1_IcEEEEEEE25__construct_range_forwardIPS6_SA_EEvRS7_T_SC_RT0_+0x18>
100002c5c:	48 83 c4 30 	addq	$48, %rsp
100002c60:	5d 	popq	%rbp
100002c61:	c3 	retq
100002c62:	66 2e 0f 1f 84 00 00 00 00 00 	nopw	%cs:(%rax,%rax)
100002c6c:	0f 1f 40 00 	nopl	(%rax)

__ZNKSt3__112basic_stringIcNS_11char_traitsIcEENS_9allocatorIcEEE13get_allocatorEv:
100002c70:	55 	pushq	%rbp
100002c71:	48 89 e5 	movq	%rsp, %rbp
100002c74:	48 83 ec 20 	subq	$32, %rsp
100002c78:	48 89 7d f0 	movq	%rdi, -16(%rbp)
100002c7c:	48 8b 7d f0 	movq	-16(%rbp), %rdi
100002c80:	e8 bb 00 00 00 	callq	187 <__ZNKSt3__112basic_stringIcNS_11char_traitsIcEENS_9allocatorIcEEE7__allocEv>
100002c85:	48 89 45 e8 	movq	%rax, -24(%rbp)
100002c89:	48 83 c4 20 	addq	$32, %rsp
100002c8d:	5d 	popq	%rbp
100002c8e:	c3 	retq
100002c8f:	90 	nop

__ZNSt3__112basic_stringIcNS_11char_traitsIcEENS_9allocatorIcEEEC1ERKS4_:
100002c90:	55 	pushq	%rbp
100002c91:	48 89 e5 	movq	%rsp, %rbp
100002c94:	48 83 ec 10 	subq	$16, %rsp
100002c98:	48 89 7d f8 	movq	%rdi, -8(%rbp)
100002c9c:	48 89 75 f0 	movq	%rsi, -16(%rbp)
100002ca0:	48 8b 7d f8 	movq	-8(%rbp), %rdi
100002ca4:	48 8b 75 f0 	movq	-16(%rbp), %rsi
100002ca8:	e8 f3 00 00 00 	callq	243 <__ZNSt3__112basic_stringIcNS_11char_traitsIcEENS_9allocatorIcEEEC2ERKS4_>
100002cad:	48 83 c4 10 	addq	$16, %rsp
100002cb1:	5d 	popq	%rbp
100002cb2:	c3 	retq
100002cb3:	66 2e 0f 1f 84 00 00 00 00 00 	nopw	%cs:(%rax,%rax)
100002cbd:	0f 1f 00 	nopl	(%rax)

__ZNKSt3__112basic_stringIcNS_11char_traitsIcEENS_9allocatorIcEEE4sizeEv:
100002cc0:	55 	pushq	%rbp
100002cc1:	48 89 e5 	movq	%rsp, %rbp
100002cc4:	48 83 ec 20 	subq	$32, %rsp
100002cc8:	48 89 7d f8 	movq	%rdi, -8(%rbp)
100002ccc:	48 8b 7d f8 	movq	-8(%rbp), %rdi
100002cd0:	48 89 7d f0 	movq	%rdi, -16(%rbp)
100002cd4:	e8 17 02 00 00 	callq	535 <__ZNKSt3__112basic_stringIcNS_11char_traitsIcEENS_9allocatorIcEEE9__is_longEv>
100002cd9:	a8 01 	testb	$1, %al
100002cdb:	0f 85 05 00 00 00 	jne	5 <__ZNKSt3__112basic_stringIcNS_11char_traitsIcEENS_9allocatorIcEEE4sizeEv+0x26>
100002ce1:	e9 12 00 00 00 	jmp	18 <__ZNKSt3__112basic_stringIcNS_11char_traitsIcEENS_9allocatorIcEEE4sizeEv+0x38>
100002ce6:	48 8b 7d f0 	movq	-16(%rbp), %rdi
100002cea:	e8 41 02 00 00 	callq	577 <__ZNKSt3__112basic_stringIcNS_11char_traitsIcEENS_9allocatorIcEEE15__get_long_sizeEv>
100002cef:	48 89 45 e8 	movq	%rax, -24(%rbp)
100002cf3:	e9 0d 00 00 00 	jmp	13 <__ZNKSt3__112basic_stringIcNS_11char_traitsIcEENS_9allocatorIcEEE4sizeEv+0x45>
100002cf8:	48 8b 7d f0 	movq	-16(%rbp), %rdi
100002cfc:	e8 4f 02 00 00 	callq	591 <__ZNKSt3__112basic_stringIcNS_11char_traitsIcEENS_9allocatorIcEEE16__get_short_sizeEv>
100002d01:	48 89 45 e8 	movq	%rax, -24(%rbp)
100002d05:	48 8b 45 e8 	movq	-24(%rbp), %rax
100002d09:	48 83 c4 20 	addq	$32, %rsp
100002d0d:	5d 	popq	%rbp
100002d0e:	c3 	retq
100002d0f:	90 	nop

__ZNKSt3__112basic_stringIcNS_11char_traitsIcEENS_9allocatorIcEEE4dataEv:
100002d10:	55 	pushq	%rbp
100002d11:	48 89 e5 	movq	%rsp, %rbp
100002d14:	48 83 ec 10 	subq	$16, %rsp
100002d18:	48 89 7d f8 	movq	%rdi, -8(%rbp)
100002d1c:	48 8b 7d f8 	movq	-8(%rbp), %rdi
100002d20:	e8 9b 02 00 00 	callq	667 <__ZNKSt3__112basic_stringIcNS_11char_traitsIcEENS_9allocatorIcEEE13__get_pointerEv>
100002d25:	48 89 c7 	movq	%rax, %rdi
100002d28:	e8 83 02 00 00 	callq	643 <__ZNSt3__1L16__to_raw_pointerIKcEEPT_S3_>
100002d2d:	48 83 c4 10 	addq	$16, %rsp
100002d31:	5d 	popq	%rbp
100002d32:	c3 	retq
100002d33:	66 2e 0f 1f 84 00 00 00 00 00 	nopw	%cs:(%rax,%rax)
100002d3d:	0f 1f 00 	nopl	(%rax)

__ZNKSt3__112basic_stringIcNS_11char_traitsIcEENS_9allocatorIcEEE7__allocEv:
100002d40:	55 	pushq	%rbp
100002d41:	48 89 e5 	movq	%rsp, %rbp
100002d44:	48 83 ec 10 	subq	$16, %rsp
100002d48:	48 89 7d f8 	movq	%rdi, -8(%rbp)
100002d4c:	48 8b 7d f8 	movq	-8(%rbp), %rdi
100002d50:	e8 0b 00 00 00 	callq	11 <__ZNKSt3__117__compressed_pairINS_12basic_stringIcNS_11char_traitsIcEENS_9allocatorIcEEE5__repES5_E6secondEv>
100002d55:	48 83 c4 10 	addq	$16, %rsp
100002d59:	5d 	popq	%rbp
100002d5a:	c3 	retq
100002d5b:	0f 1f 44 00 00 	nopl	(%rax,%rax)

__ZNKSt3__117__compressed_pairINS_12basic_stringIcNS_11char_traitsIcEENS_9allocatorIcEEE5__repES5_E6secondEv:
100002d60:	55 	pushq	%rbp
100002d61:	48 89 e5 	movq	%rsp, %rbp
100002d64:	48 83 ec 10 	subq	$16, %rsp
100002d68:	48 89 7d f8 	movq	%rdi, -8(%rbp)
100002d6c:	48 8b 7d f8 	movq	-8(%rbp), %rdi
100002d70:	e8 0b 00 00 00 	callq	11 <__ZNKSt3__122__compressed_pair_elemINS_9allocatorIcEELi1ELb1EE5__getEv>
100002d75:	48 83 c4 10 	addq	$16, %rsp
100002d79:	5d 	popq	%rbp
100002d7a:	c3 	retq
100002d7b:	0f 1f 44 00 00 	nopl	(%rax,%rax)

__ZNKSt3__122__compressed_pair_elemINS_9allocatorIcEELi1ELb1EE5__getEv:
100002d80:	55 	pushq	%rbp
100002d81:	48 89 e5 	movq	%rsp, %rbp
100002d84:	48 89 7d f8 	movq	%rdi, -8(%rbp)
100002d88:	48 8b 7d f8 	movq	-8(%rbp), %rdi
100002d8c:	48 89 f8 	movq	%rdi, %rax
100002d8f:	5d 	popq	%rbp
100002d90:	c3 	retq
100002d91:	66 2e 0f 1f 84 00 00 00 00 00 	nopw	%cs:(%rax,%rax)
100002d9b:	0f 1f 44 00 00 	nopl	(%rax,%rax)

__ZNSt3__112basic_stringIcNS_11char_traitsIcEENS_9allocatorIcEEEC2ERKS4_:
100002da0:	55 	pushq	%rbp
100002da1:	48 89 e5 	movq	%rsp, %rbp
100002da4:	48 83 ec 30 	subq	$48, %rsp
100002da8:	48 89 7d f8 	movq	%rdi, -8(%rbp)
100002dac:	48 89 75 f0 	movq	%rsi, -16(%rbp)
100002db0:	48 8b 75 f8 	movq	-8(%rbp), %rsi
100002db4:	48 89 f7 	movq	%rsi, %rdi
100002db7:	48 89 75 d8 	movq	%rsi, -40(%rbp)
100002dbb:	e8 10 00 00 00 	callq	16 <__ZNSt3__117__compressed_pairINS_12basic_stringIcNS_11char_traitsIcEENS_9allocatorIcEEE5__repES5_EC1ENS_12__second_tagES5_>
100002dc0:	48 8b 7d d8 	movq	-40(%rbp), %rdi
100002dc4:	e8 27 00 00 00 	callq	39 <__ZNSt3__112basic_stringIcNS_11char_traitsIcEENS_9allocatorIcEEE6__zeroEv>
100002dc9:	48 83 c4 30 	addq	$48, %rsp
100002dcd:	5d 	popq	%rbp
100002dce:	c3 	retq
100002dcf:	90 	nop

__ZNSt3__117__compressed_pairINS_12basic_stringIcNS_11char_traitsIcEENS_9allocatorIcEEE5__repES5_EC1ENS_12__second_tagES5_:
100002dd0:	55 	pushq	%rbp
100002dd1:	48 89 e5 	movq	%rsp, %rbp
100002dd4:	48 83 ec 20 	subq	$32, %rsp
100002dd8:	48 89 7d e8 	movq	%rdi, -24(%rbp)
100002ddc:	48 8b 7d e8 	movq	-24(%rbp), %rdi
100002de0:	e8 5b 00 00 00 	callq	91 <__ZNSt3__117__compressed_pairINS_12basic_stringIcNS_11char_traitsIcEENS_9allocatorIcEEE5__repES5_EC2ENS_12__second_tagES5_>
100002de5:	48 83 c4 20 	addq	$32, %rsp
100002de9:	5d 	popq	%rbp
100002dea:	c3 	retq
100002deb:	0f 1f 44 00 00 	nopl	(%rax,%rax)

__ZNSt3__112basic_stringIcNS_11char_traitsIcEENS_9allocatorIcEEE6__zeroEv:
100002df0:	55 	pushq	%rbp
100002df1:	48 89 e5 	movq	%rsp, %rbp
100002df4:	48 83 ec 20 	subq	$32, %rsp
100002df8:	48 89 7d f8 	movq	%rdi, -8(%rbp)
100002dfc:	48 8b 7d f8 	movq	-8(%rbp), %rdi
100002e00:	e8 bb 00 00 00 	callq	187 <__ZNSt3__117__compressed_pairINS_12basic_stringIcNS_11char_traitsIcEENS_9allocatorIcEEE5__repES5_E5firstEv>
100002e05:	48 89 45 f0 	movq	%rax, -16(%rbp)
100002e09:	c7 45 ec 00 00 00 00 	movl	$0, -20(%rbp)
100002e10:	83 7d ec 03 	cmpl	$3, -20(%rbp)
100002e14:	0f 83 1f 00 00 00 	jae	31 <__ZNSt3__112basic_stringIcNS_11char_traitsIcEENS_9allocatorIcEEE6__zeroEv+0x49>
100002e1a:	48 8b 45 f0 	movq	-16(%rbp), %rax
100002e1e:	8b 4d ec 	movl	-20(%rbp), %ecx
100002e21:	89 ca 	movl	%ecx, %edx
100002e23:	48 c7 04 d0 00 00 00 00 	movq	$0, (%rax,%rdx,8)
100002e2b:	8b 45 ec 	movl	-20(%rbp), %eax
100002e2e:	83 c0 01 	addl	$1, %eax
100002e31:	89 45 ec 	movl	%eax, -20(%rbp)
100002e34:	e9 d7 ff ff ff 	jmp	-41 <__ZNSt3__112basic_stringIcNS_11char_traitsIcEENS_9allocatorIcEEE6__zeroEv+0x20>
100002e39:	48 83 c4 20 	addq	$32, %rsp
100002e3d:	5d 	popq	%rbp
100002e3e:	c3 	retq
100002e3f:	90 	nop

__ZNSt3__117__compressed_pairINS_12basic_stringIcNS_11char_traitsIcEENS_9allocatorIcEEE5__repES5_EC2ENS_12__second_tagES5_:
100002e40:	55 	pushq	%rbp
100002e41:	48 89 e5 	movq	%rsp, %rbp
100002e44:	48 83 ec 40 	subq	$64, %rsp
100002e48:	48 89 7d e8 	movq	%rdi, -24(%rbp)
100002e4c:	48 8b 7d e8 	movq	-24(%rbp), %rdi
100002e50:	48 89 f8 	movq	%rdi, %rax
100002e53:	48 89 7d d8 	movq	%rdi, -40(%rbp)
100002e57:	48 89 c7 	movq	%rax, %rdi
100002e5a:	e8 e1 f9 ff ff 	callq	-1567 <__ZNSt3__122__compressed_pair_elemINS_12basic_stringIcNS_11char_traitsIcEENS_9allocatorIcEEE5__repELi0ELb0EEC2Ev>
100002e5f:	48 8b 45 d8 	movq	-40(%rbp), %rax
100002e63:	48 8d 7d f0 	leaq	-16(%rbp), %rdi
100002e67:	48 89 45 d0 	movq	%rax, -48(%rbp)
100002e6b:	e8 20 00 00 00 	callq	32 <__ZNSt3__1L7forwardINS_9allocatorIcEEEERT_RNS_16remove_referenceIS3_E4typeE>
100002e70:	48 8b 7d d0 	movq	-48(%rbp), %rdi
100002e74:	48 89 45 c8 	movq	%rax, -56(%rbp)
100002e78:	e8 23 00 00 00 	callq	35 <__ZNSt3__122__compressed_pair_elemINS_9allocatorIcEELi1ELb1EEC2ES2_>
100002e7d:	48 83 c4 40 	addq	$64, %rsp
100002e81:	5d 	popq	%rbp
100002e82:	c3 	retq
100002e83:	66 2e 0f 1f 84 00 00 00 00 00 	nopw	%cs:(%rax,%rax)
100002e8d:	0f 1f 00 	nopl	(%rax)

__ZNSt3__1L7forwardINS_9allocatorIcEEEERT_RNS_16remove_referenceIS3_E4typeE:
100002e90:	55 	pushq	%rbp
100002e91:	48 89 e5 	movq	%rsp, %rbp
100002e94:	48 89 7d f8 	movq	%rdi, -8(%rbp)
100002e98:	48 8b 45 f8 	movq	-8(%rbp), %rax
100002e9c:	5d 	popq	%rbp
100002e9d:	c3 	retq
100002e9e:	66 90 	nop

__ZNSt3__122__compressed_pair_elemINS_9allocatorIcEELi1ELb1EEC2ES2_:
100002ea0:	55 	pushq	%rbp
100002ea1:	48 89 e5 	movq	%rsp, %rbp
100002ea4:	48 83 ec 20 	subq	$32, %rsp
100002ea8:	48 89 7d f0 	movq	%rdi, -16(%rbp)
100002eac:	48 8d 7d f8 	leaq	-8(%rbp), %rdi
100002eb0:	e8 db ff ff ff 	callq	-37 <__ZNSt3__1L7forwardINS_9allocatorIcEEEERT_RNS_16remove_referenceIS3_E4typeE>
100002eb5:	48 89 45 e8 	movq	%rax, -24(%rbp)
100002eb9:	48 83 c4 20 	addq	$32, %rsp
100002ebd:	5d 	popq	%rbp
100002ebe:	c3 	retq
100002ebf:	90 	nop

__ZNSt3__117__compressed_pairINS_12basic_stringIcNS_11char_traitsIcEENS_9allocatorIcEEE5__repES5_E5firstEv:
100002ec0:	55 	pushq	%rbp
100002ec1:	48 89 e5 	movq	%rsp, %rbp
100002ec4:	48 83 ec 10 	subq	$16, %rsp
100002ec8:	48 89 7d f8 	movq	%rdi, -8(%rbp)
100002ecc:	48 8b 7d f8 	movq	-8(%rbp), %rdi
100002ed0:	e8 0b 00 00 00 	callq	11 <__ZNSt3__122__compressed_pair_elemINS_12basic_stringIcNS_11char_traitsIcEENS_9allocatorIcEEE5__repELi0ELb0EE5__getEv>
100002ed5:	48 83 c4 10 	addq	$16, %rsp
100002ed9:	5d 	popq	%rbp
100002eda:	c3 	retq
100002edb:	0f 1f 44 00 00 	nopl	(%rax,%rax)

__ZNSt3__122__compressed_pair_elemINS_12basic_stringIcNS_11char_traitsIcEENS_9allocatorIcEEE5__repELi0ELb0EE5__getEv:
100002ee0:	55 	pushq	%rbp
100002ee1:	48 89 e5 	movq	%rsp, %rbp
100002ee4:	48 89 7d f8 	movq	%rdi, -8(%rbp)
100002ee8:	48 8b 45 f8 	movq	-8(%rbp), %rax
100002eec:	5d 	popq	%rbp
100002eed:	c3 	retq
100002eee:	66 90 	nop

__ZNKSt3__112basic_stringIcNS_11char_traitsIcEENS_9allocatorIcEEE9__is_longEv:
100002ef0:	55 	pushq	%rbp
100002ef1:	48 89 e5 	movq	%rsp, %rbp
100002ef4:	48 83 ec 10 	subq	$16, %rsp
100002ef8:	48 89 7d f8 	movq	%rdi, -8(%rbp)
100002efc:	48 8b 7d f8 	movq	-8(%rbp), %rdi
100002f00:	e8 7b 00 00 00 	callq	123 <__ZNKSt3__117__compressed_pairINS_12basic_stringIcNS_11char_traitsIcEENS_9allocatorIcEEE5__repES5_E5firstEv>
100002f05:	0f b6 08 	movzbl	(%rax), %ecx
100002f08:	89 c8 	movl	%ecx, %eax
100002f0a:	48 83 e0 01 	andq	$1, %rax
100002f0e:	48 83 f8 00 	cmpq	$0, %rax
100002f12:	0f 95 c2 	setne	%dl
100002f15:	80 e2 01 	andb	$1, %dl
100002f18:	0f b6 c2 	movzbl	%dl, %eax
100002f1b:	48 83 c4 10 	addq	$16, %rsp
100002f1f:	5d 	popq	%rbp
100002f20:	c3 	retq
100002f21:	66 2e 0f 1f 84 00 00 00 00 00 	nopw	%cs:(%rax,%rax)
100002f2b:	0f 1f 44 00 00 	nopl	(%rax,%rax)

__ZNKSt3__112basic_stringIcNS_11char_traitsIcEENS_9allocatorIcEEE15__get_long_sizeEv:
100002f30:	55 	pushq	%rbp
100002f31:	48 89 e5 	movq	%rsp, %rbp
100002f34:	48 83 ec 10 	subq	$16, %rsp
100002f38:	48 89 7d f8 	movq	%rdi, -8(%rbp)
100002f3c:	48 8b 7d f8 	movq	-8(%rbp), %rdi
100002f40:	e8 3b 00 00 00 	callq	59 <__ZNKSt3__117__compressed_pairINS_12basic_stringIcNS_11char_traitsIcEENS_9allocatorIcEEE5__repES5_E5firstEv>
100002f45:	48 8b 40 08 	movq	8(%rax), %rax
100002f49:	48 83 c4 10 	addq	$16, %rsp
100002f4d:	5d 	popq	%rbp
100002f4e:	c3 	retq
100002f4f:	90 	nop

__ZNKSt3__112basic_stringIcNS_11char_traitsIcEENS_9allocatorIcEEE16__get_short_sizeEv:
100002f50:	55 	pushq	%rbp
100002f51:	48 89 e5 	movq	%rsp, %rbp
100002f54:	48 83 ec 10 	subq	$16, %rsp
100002f58:	48 89 7d f8 	movq	%rdi, -8(%rbp)
100002f5c:	48 8b 7d f8 	movq	-8(%rbp), %rdi
100002f60:	e8 1b 00 00 00 	callq	27 <__ZNKSt3__117__compressed_pairINS_12basic_stringIcNS_11char_traitsIcEENS_9allocatorIcEEE5__repES5_E5firstEv>
100002f65:	0f b6 08 	movzbl	(%rax), %ecx
100002f68:	c1 f9 01 	sarl	$1, %ecx
100002f6b:	48 63 c1 	movslq	%ecx, %rax
100002f6e:	48 83 c4 10 	addq	$16, %rsp
100002f72:	5d 	popq	%rbp
100002f73:	c3 	retq
100002f74:	66 2e 0f 1f 84 00 00 00 00 00 	nopw	%cs:(%rax,%rax)
100002f7e:	66 90 	nop

__ZNKSt3__117__compressed_pairINS_12basic_stringIcNS_11char_traitsIcEENS_9allocatorIcEEE5__repES5_E5firstEv:
100002f80:	55 	pushq	%rbp
100002f81:	48 89 e5 	movq	%rsp, %rbp
100002f84:	48 83 ec 10 	subq	$16, %rsp
100002f88:	48 89 7d f8 	movq	%rdi, -8(%rbp)
100002f8c:	48 8b 7d f8 	movq	-8(%rbp), %rdi
100002f90:	e8 0b 00 00 00 	callq	11 <__ZNKSt3__122__compressed_pair_elemINS_12basic_stringIcNS_11char_traitsIcEENS_9allocatorIcEEE5__repELi0ELb0EE5__getEv>
100002f95:	48 83 c4 10 	addq	$16, %rsp
100002f99:	5d 	popq	%rbp
100002f9a:	c3 	retq
100002f9b:	0f 1f 44 00 00 	nopl	(%rax,%rax)

__ZNKSt3__122__compressed_pair_elemINS_12basic_stringIcNS_11char_traitsIcEENS_9allocatorIcEEE5__repELi0ELb0EE5__getEv:
100002fa0:	55 	pushq	%rbp
100002fa1:	48 89 e5 	movq	%rsp, %rbp
100002fa4:	48 89 7d f8 	movq	%rdi, -8(%rbp)
100002fa8:	48 8b 45 f8 	movq	-8(%rbp), %rax
100002fac:	5d 	popq	%rbp
100002fad:	c3 	retq
100002fae:	66 90 	nop

__ZNSt3__1L16__to_raw_pointerIKcEEPT_S3_:
100002fb0:	55 	pushq	%rbp
100002fb1:	48 89 e5 	movq	%rsp, %rbp
100002fb4:	48 89 7d f8 	movq	%rdi, -8(%rbp)
100002fb8:	48 8b 45 f8 	movq	-8(%rbp), %rax
100002fbc:	5d 	popq	%rbp
100002fbd:	c3 	retq
100002fbe:	66 90 	nop

__ZNKSt3__112basic_stringIcNS_11char_traitsIcEENS_9allocatorIcEEE13__get_pointerEv:
100002fc0:	55 	pushq	%rbp
100002fc1:	48 89 e5 	movq	%rsp, %rbp
100002fc4:	48 83 ec 20 	subq	$32, %rsp
100002fc8:	48 89 7d f8 	movq	%rdi, -8(%rbp)
100002fcc:	48 8b 7d f8 	movq	-8(%rbp), %rdi
100002fd0:	48 89 7d f0 	movq	%rdi, -16(%rbp)
100002fd4:	e8 17 ff ff ff 	callq	-233 <__ZNKSt3__112basic_stringIcNS_11char_traitsIcEENS_9allocatorIcEEE9__is_longEv>
100002fd9:	a8 01 	testb	$1, %al
100002fdb:	0f 85 05 00 00 00 	jne	5 <__ZNKSt3__112basic_stringIcNS_11char_traitsIcEENS_9allocatorIcEEE13__get_pointerEv+0x26>
100002fe1:	e9 12 00 00 00 	jmp	18 <__ZNKSt3__112basic_stringIcNS_11char_traitsIcEENS_9allocatorIcEEE13__get_pointerEv+0x38>
100002fe6:	48 8b 7d f0 	movq	-16(%rbp), %rdi
100002fea:	e8 21 00 00 00 	callq	33 <__ZNKSt3__112basic_stringIcNS_11char_traitsIcEENS_9allocatorIcEEE18__get_long_pointerEv>
100002fef:	48 89 45 e8 	movq	%rax, -24(%rbp)
100002ff3:	e9 0d 00 00 00 	jmp	13 <__ZNKSt3__112basic_stringIcNS_11char_traitsIcEENS_9allocatorIcEEE13__get_pointerEv+0x45>
100002ff8:	48 8b 7d f0 	movq	-16(%rbp), %rdi
100002ffc:	e8 2f 00 00 00 	callq	47 <__ZNKSt3__112basic_stringIcNS_11char_traitsIcEENS_9allocatorIcEEE19__get_short_pointerEv>
100003001:	48 89 45 e8 	movq	%rax, -24(%rbp)
100003005:	48 8b 45 e8 	movq	-24(%rbp), %rax
100003009:	48 83 c4 20 	addq	$32, %rsp
10000300d:	5d 	popq	%rbp
10000300e:	c3 	retq
10000300f:	90 	nop

__ZNKSt3__112basic_stringIcNS_11char_traitsIcEENS_9allocatorIcEEE18__get_long_pointerEv:
100003010:	55 	pushq	%rbp
100003011:	48 89 e5 	movq	%rsp, %rbp
100003014:	48 83 ec 10 	subq	$16, %rsp
100003018:	48 89 7d f8 	movq	%rdi, -8(%rbp)
10000301c:	48 8b 7d f8 	movq	-8(%rbp), %rdi
100003020:	e8 5b ff ff ff 	callq	-165 <__ZNKSt3__117__compressed_pairINS_12basic_stringIcNS_11char_traitsIcEENS_9allocatorIcEEE5__repES5_E5firstEv>
100003025:	48 8b 40 10 	movq	16(%rax), %rax
100003029:	48 83 c4 10 	addq	$16, %rsp
10000302d:	5d 	popq	%rbp
10000302e:	c3 	retq
10000302f:	90 	nop

__ZNKSt3__112basic_stringIcNS_11char_traitsIcEENS_9allocatorIcEEE19__get_short_pointerEv:
100003030:	55 	pushq	%rbp
100003031:	48 89 e5 	movq	%rsp, %rbp
100003034:	48 83 ec 10 	subq	$16, %rsp
100003038:	48 89 7d f8 	movq	%rdi, -8(%rbp)
10000303c:	48 8b 7d f8 	movq	-8(%rbp), %rdi
100003040:	e8 3b ff ff ff 	callq	-197 <__ZNKSt3__117__compressed_pairINS_12basic_stringIcNS_11char_traitsIcEENS_9allocatorIcEEE5__repES5_E5firstEv>
100003045:	48 83 c0 01 	addq	$1, %rax
100003049:	48 89 c7 	movq	%rax, %rdi
10000304c:	e8 0f 00 00 00 	callq	15 <__ZNSt3__114pointer_traitsIPKcE10pointer_toERS1_>
100003051:	48 83 c4 10 	addq	$16, %rsp
100003055:	5d 	popq	%rbp
100003056:	c3 	retq
100003057:	66 0f 1f 84 00 00 00 00 00 	nopw	(%rax,%rax)

__ZNSt3__114pointer_traitsIPKcE10pointer_toERS1_:
100003060:	55 	pushq	%rbp
100003061:	48 89 e5 	movq	%rsp, %rbp
100003064:	48 83 ec 10 	subq	$16, %rsp
100003068:	48 89 7d f8 	movq	%rdi, -8(%rbp)
10000306c:	48 8b 7d f8 	movq	-8(%rbp), %rdi
100003070:	e8 0b 00 00 00 	callq	11 <__ZNSt3__1L9addressofIKcEEPT_RS2_>
100003075:	48 83 c4 10 	addq	$16, %rsp
100003079:	5d 	popq	%rbp
10000307a:	c3 	retq
10000307b:	0f 1f 44 00 00 	nopl	(%rax,%rax)

__ZNSt3__1L9addressofIKcEEPT_RS2_:
100003080:	55 	pushq	%rbp
100003081:	48 89 e5 	movq	%rsp, %rbp
100003084:	48 89 7d f8 	movq	%rdi, -8(%rbp)
100003088:	48 8b 45 f8 	movq	-8(%rbp), %rax
10000308c:	5d 	popq	%rbp
10000308d:	c3 	retq
10000308e:	66 90 	nop

__ZNSt3__124__put_character_sequenceIcNS_11char_traitsIcEEEERNS_13basic_ostreamIT_T0_EES7_PKS4_m:
100003090:	55 	pushq	%rbp
100003091:	48 89 e5 	movq	%rsp, %rbp
100003094:	48 81 ec a0 00 00 00 	subq	$160, %rsp
10000309b:	48 89 7d f8 	movq	%rdi, -8(%rbp)
10000309f:	48 89 75 f0 	movq	%rsi, -16(%rbp)
1000030a3:	48 89 55 e8 	movq	%rdx, -24(%rbp)
1000030a7:	48 8b 75 f8 	movq	-8(%rbp), %rsi
1000030ab:	48 8d 7d d8 	leaq	-40(%rbp), %rdi
1000030af:	e8 6c 09 00 00 	callq	2412 <dyld_stub_binder+0x100003a20>
1000030b4:	e9 00 00 00 00 	jmp	0 <__ZNSt3__124__put_character_sequenceIcNS_11char_traitsIcEEEERNS_13basic_ostreamIT_T0_EES7_PKS4_m+0x29>
1000030b9:	48 8d 7d d8 	leaq	-40(%rbp), %rdi
1000030bd:	e8 de 01 00 00 	callq	478 <__ZNKSt3__113basic_ostreamIcNS_11char_traitsIcEEE6sentrycvbEv>
1000030c2:	88 45 b7 	movb	%al, -73(%rbp)
1000030c5:	e9 00 00 00 00 	jmp	0 <__ZNSt3__124__put_character_sequenceIcNS_11char_traitsIcEEEERNS_13basic_ostreamIT_T0_EES7_PKS4_m+0x3a>
1000030ca:	8a 45 b7 	movb	-73(%rbp), %al
1000030cd:	a8 01 	testb	$1, %al
1000030cf:	0f 85 05 00 00 00 	jne	5 <__ZNSt3__124__put_character_sequenceIcNS_11char_traitsIcEEEERNS_13basic_ostreamIT_T0_EES7_PKS4_m+0x4a>
1000030d5:	e9 35 01 00 00 	jmp	309 <__ZNSt3__124__put_character_sequenceIcNS_11char_traitsIcEEEERNS_13basic_ostreamIT_T0_EES7_PKS4_m+0x17f>
1000030da:	48 8b 75 f8 	movq	-8(%rbp), %rsi
1000030de:	48 8d 7d b8 	leaq	-72(%rbp), %rdi
1000030e2:	e8 b9 04 00 00 	callq	1209 <__ZNSt3__119ostreambuf_iteratorIcNS_11char_traitsIcEEEC1ERNS_13basic_ostreamIcS2_EE>
1000030e7:	48 8b 75 f0 	movq	-16(%rbp), %rsi
1000030eb:	48 8b 7d f8 	movq	-8(%rbp), %rdi
1000030ef:	48 8b 07 	movq	(%rdi), %rax
1000030f2:	48 8b 40 e8 	movq	-24(%rax), %rax
1000030f6:	48 01 c7 	addq	%rax, %rdi
1000030f9:	48 89 75 a8 	movq	%rsi, -88(%rbp)
1000030fd:	e8 ce 04 00 00 	callq	1230 <__ZNKSt3__18ios_base5flagsEv>
100003102:	89 45 a4 	movl	%eax, -92(%rbp)
100003105:	e9 00 00 00 00 	jmp	0 <__ZNSt3__124__put_character_sequenceIcNS_11char_traitsIcEEEERNS_13basic_ostreamIT_T0_EES7_PKS4_m+0x7a>
10000310a:	8b 45 a4 	movl	-92(%rbp), %eax
10000310d:	25 b0 00 00 00 	andl	$176, %eax
100003112:	83 f8 20 	cmpl	$32, %eax
100003115:	0f 85 11 00 00 00 	jne	17 <__ZNSt3__124__put_character_sequenceIcNS_11char_traitsIcEEEERNS_13basic_ostreamIT_T0_EES7_PKS4_m+0x9c>
10000311b:	48 8b 45 f0 	movq	-16(%rbp), %rax
10000311f:	48 03 45 e8 	addq	-24(%rbp), %rax
100003123:	48 89 45 98 	movq	%rax, -104(%rbp)
100003127:	e9 08 00 00 00 	jmp	8 <__ZNSt3__124__put_character_sequenceIcNS_11char_traitsIcEEEERNS_13basic_ostreamIT_T0_EES7_PKS4_m+0xa4>
10000312c:	48 8b 45 f0 	movq	-16(%rbp), %rax
100003130:	48 89 45 98 	movq	%rax, -104(%rbp)
100003134:	48 8b 45 98 	movq	-104(%rbp), %rax
100003138:	48 8b 4d f0 	movq	-16(%rbp), %rcx
10000313c:	48 8b 55 e8 	movq	-24(%rbp), %rdx
100003140:	48 01 d1 	addq	%rdx, %rcx
100003143:	48 8b 55 f8 	movq	-8(%rbp), %rdx
100003147:	48 8b 32 	movq	(%rdx), %rsi
10000314a:	48 8b 76 e8 	movq	-24(%rsi), %rsi
10000314e:	48 01 f2 	addq	%rsi, %rdx
100003151:	48 89 d7 	movq	%rdx, %rdi
100003154:	48 89 45 90 	movq	%rax, -112(%rbp)
100003158:	48 89 4d 88 	movq	%rcx, -120(%rbp)
10000315c:	48 89 55 80 	movq	%rdx, -128(%rbp)
100003160:	e8 8b 04 00 00 	callq	1163 <__ZNKSt3__19basic_iosIcNS_11char_traitsIcEEE4fillEv>
100003165:	88 85 7f ff ff ff 	movb	%al, -129(%rbp)
10000316b:	e9 00 00 00 00 	jmp	0 <__ZNSt3__124__put_character_sequenceIcNS_11char_traitsIcEEEERNS_13basic_ostreamIT_T0_EES7_PKS4_m+0xe0>
100003170:	48 8b 7d b8 	movq	-72(%rbp), %rdi
100003174:	8a 85 7f ff ff ff 	movb	-129(%rbp), %al
10000317a:	44 0f be c8 	movsbl	%al, %r9d
10000317e:	48 8b 75 a8 	movq	-88(%rbp), %rsi
100003182:	48 8b 55 90 	movq	-112(%rbp), %rdx
100003186:	48 8b 4d 88 	movq	-120(%rbp), %rcx
10000318a:	4c 8b 45 80 	movq	-128(%rbp), %r8
10000318e:	e8 2d 01 00 00 	callq	301 <__ZNSt3__116__pad_and_outputIcNS_11char_traitsIcEEEENS_19ostreambuf_iteratorIT_T0_EES6_PKS4_S8_S8_RNS_8ios_baseES4_>
100003193:	48 89 85 70 ff ff ff 	movq	%rax, -144(%rbp)
10000319a:	e9 00 00 00 00 	jmp	0 <__ZNSt3__124__put_character_sequenceIcNS_11char_traitsIcEEEERNS_13basic_ostreamIT_T0_EES7_PKS4_m+0x10f>
10000319f:	48 8b 85 70 ff ff ff 	movq	-144(%rbp), %rax
1000031a6:	48 89 45 c0 	movq	%rax, -64(%rbp)
1000031aa:	48 8d 7d c0 	leaq	-64(%rbp), %rdi
1000031ae:	e8 ad 04 00 00 	callq	1197 <__ZNKSt3__119ostreambuf_iteratorIcNS_11char_traitsIcEEE6failedEv>
1000031b3:	a8 01 	testb	$1, %al
1000031b5:	0f 85 05 00 00 00 	jne	5 <__ZNSt3__124__put_character_sequenceIcNS_11char_traitsIcEEEERNS_13basic_ostreamIT_T0_EES7_PKS4_m+0x130>
1000031bb:	e9 4a 00 00 00 	jmp	74 <__ZNSt3__124__put_character_sequenceIcNS_11char_traitsIcEEEERNS_13basic_ostreamIT_T0_EES7_PKS4_m+0x17a>
1000031c0:	48 8b 45 f8 	movq	-8(%rbp), %rax
1000031c4:	48 8b 08 	movq	(%rax), %rcx
1000031c7:	48 8b 49 e8 	movq	-24(%rcx), %rcx
1000031cb:	48 01 c8 	addq	%rcx, %rax
1000031ce:	be 05 00 00 00 	movl	$5, %esi
1000031d3:	48 89 c7 	movq	%rax, %rdi
1000031d6:	e8 a5 04 00 00 	callq	1189 <__ZNSt3__19basic_iosIcNS_11char_traitsIcEEE8setstateEj>
1000031db:	e9 00 00 00 00 	jmp	0 <__ZNSt3__124__put_character_sequenceIcNS_11char_traitsIcEEEERNS_13basic_ostreamIT_T0_EES7_PKS4_m+0x150>
1000031e0:	e9 25 00 00 00 	jmp	37 <__ZNSt3__124__put_character_sequenceIcNS_11char_traitsIcEEEERNS_13basic_ostreamIT_T0_EES7_PKS4_m+0x17a>
1000031e5:	89 d1 	movl	%edx, %ecx
1000031e7:	48 89 45 d0 	movq	%rax, -48(%rbp)
1000031eb:	89 4d cc 	movl	%ecx, -52(%rbp)
1000031ee:	e9 34 00 00 00 	jmp	52 <__ZNSt3__124__put_character_sequenceIcNS_11char_traitsIcEEEERNS_13basic_ostreamIT_T0_EES7_PKS4_m+0x197>
1000031f3:	89 d1 	movl	%edx, %ecx
1000031f5:	48 89 45 d0 	movq	%rax, -48(%rbp)
1000031f9:	89 4d cc 	movl	%ecx, -52(%rbp)
1000031fc:	48 8d 7d d8 	leaq	-40(%rbp), %rdi
100003200:	e8 21 08 00 00 	callq	2081 <dyld_stub_binder+0x100003a26>
100003205:	e9 18 00 00 00 	jmp	24 <__ZNSt3__124__put_character_sequenceIcNS_11char_traitsIcEEEERNS_13basic_ostreamIT_T0_EES7_PKS4_m+0x192>
10000320a:	e9 00 00 00 00 	jmp	0 <__ZNSt3__124__put_character_sequenceIcNS_11char_traitsIcEEEERNS_13basic_ostreamIT_T0_EES7_PKS4_m+0x17f>
10000320f:	48 8d 7d d8 	leaq	-40(%rbp), %rdi
100003213:	e8 0e 08 00 00 	callq	2062 <dyld_stub_binder+0x100003a26>
100003218:	e9 00 00 00 00 	jmp	0 <__ZNSt3__124__put_character_sequenceIcNS_11char_traitsIcEEEERNS_13basic_ostreamIT_T0_EES7_PKS4_m+0x18d>
10000321d:	e9 32 00 00 00 	jmp	50 <__ZNSt3__124__put_character_sequenceIcNS_11char_traitsIcEEEERNS_13basic_ostreamIT_T0_EES7_PKS4_m+0x1c4>
100003222:	e9 00 00 00 00 	jmp	0 <__ZNSt3__124__put_character_sequenceIcNS_11char_traitsIcEEEERNS_13basic_ostreamIT_T0_EES7_PKS4_m+0x197>
100003227:	48 8b 7d d0 	movq	-48(%rbp), %rdi
10000322b:	e8 62 08 00 00 	callq	2146 <dyld_stub_binder+0x100003a92>
100003230:	48 8b 7d f8 	movq	-8(%rbp), %rdi
100003234:	48 8b 0f 	movq	(%rdi), %rcx
100003237:	48 8b 49 e8 	movq	-24(%rcx), %rcx
10000323b:	48 01 cf 	addq	%rcx, %rdi
10000323e:	48 89 85 68 ff ff ff 	movq	%rax, -152(%rbp)
100003245:	e8 12 08 00 00 	callq	2066 <dyld_stub_binder+0x100003a5c>
10000324a:	e9 00 00 00 00 	jmp	0 <__ZNSt3__124__put_character_sequenceIcNS_11char_traitsIcEEEERNS_13basic_ostreamIT_T0_EES7_PKS4_m+0x1bf>
10000324f:	e8 4a 08 00 00 	callq	2122 <dyld_stub_binder+0x100003a9e>
100003254:	48 8b 45 f8 	movq	-8(%rbp), %rax
100003258:	48 81 c4 a0 00 00 00 	addq	$160, %rsp
10000325f:	5d 	popq	%rbp
100003260:	c3 	retq
100003261:	89 d1 	movl	%edx, %ecx
100003263:	48 89 45 d0 	movq	%rax, -48(%rbp)
100003267:	89 4d cc 	movl	%ecx, -52(%rbp)
10000326a:	e8 2f 08 00 00 	callq	2095 <dyld_stub_binder+0x100003a9e>
10000326f:	e9 00 00 00 00 	jmp	0 <__ZNSt3__124__put_character_sequenceIcNS_11char_traitsIcEEEERNS_13basic_ostreamIT_T0_EES7_PKS4_m+0x1e4>
100003274:	e9 00 00 00 00 	jmp	0 <__ZNSt3__124__put_character_sequenceIcNS_11char_traitsIcEEEERNS_13basic_ostreamIT_T0_EES7_PKS4_m+0x1e9>
100003279:	48 8b 7d d0 	movq	-48(%rbp), %rdi
10000327d:	e8 32 07 00 00 	callq	1842 <dyld_stub_binder+0x1000039b4>
100003282:	0f 0b 	ud2
100003284:	48 89 c7 	movq	%rax, %rdi
100003287:	48 89 95 60 ff ff ff 	movq	%rdx, -160(%rbp)
10000328e:	e8 5d db ff ff 	callq	-9379 <___clang_call_terminate>
100003293:	66 2e 0f 1f 84 00 00 00 00 00 	nopw	%cs:(%rax,%rax)
10000329d:	0f 1f 00 	nopl	(%rax)

__ZNKSt3__113basic_ostreamIcNS_11char_traitsIcEEE6sentrycvbEv:
1000032a0:	55 	pushq	%rbp
1000032a1:	48 89 e5 	movq	%rsp, %rbp
1000032a4:	48 89 7d f8 	movq	%rdi, -8(%rbp)
1000032a8:	48 8b 7d f8 	movq	-8(%rbp), %rdi
1000032ac:	8a 07 	movb	(%rdi), %al
1000032ae:	24 01 	andb	$1, %al
1000032b0:	0f b6 c0 	movzbl	%al, %eax
1000032b3:	5d 	popq	%rbp
1000032b4:	c3 	retq
1000032b5:	66 2e 0f 1f 84 00 00 00 00 00 	nopw	%cs:(%rax,%rax)
1000032bf:	90 	nop

__ZNSt3__116__pad_and_outputIcNS_11char_traitsIcEEEENS_19ostreambuf_iteratorIT_T0_EES6_PKS4_S8_S8_RNS_8ios_baseES4_:
1000032c0:	55 	pushq	%rbp
1000032c1:	48 89 e5 	movq	%rsp, %rbp
1000032c4:	48 81 ec f0 00 00 00 	subq	$240, %rsp
1000032cb:	44 88 c8 	movb	%r9b, %al
1000032ce:	48 89 7d f0 	movq	%rdi, -16(%rbp)
1000032d2:	48 89 75 e8 	movq	%rsi, -24(%rbp)
1000032d6:	48 89 55 e0 	movq	%rdx, -32(%rbp)
1000032da:	48 89 4d d8 	movq	%rcx, -40(%rbp)
1000032de:	4c 89 45 d0 	movq	%r8, -48(%rbp)
1000032e2:	88 45 cf 	movb	%al, -49(%rbp)
1000032e5:	48 8b 4d f0 	movq	-16(%rbp), %rcx
1000032e9:	48 89 8d 58 ff ff ff 	movq	%rcx, -168(%rbp)
1000032f0:	e8 8b df ff ff 	callq	-8309 <__ZNSt3__1L15__get_nullptr_tEv>
1000032f5:	48 89 45 c0 	movq	%rax, -64(%rbp)
1000032f9:	48 8d 7d c0 	leaq	-64(%rbp), %rdi
1000032fd:	e8 ae 03 00 00 	callq	942 <__ZNKSt3__19nullptr_tcvPT_INS_15basic_streambufIcNS_11char_traitsIcEEEEEEv>
100003302:	48 8b 8d 58 ff ff ff 	movq	-168(%rbp), %rcx
100003309:	48 39 c1 	cmpq	%rax, %rcx
10000330c:	0f 85 0d 00 00 00 	jne	13 <__ZNSt3__116__pad_and_outputIcNS_11char_traitsIcEEEENS_19ostreambuf_iteratorIT_T0_EES6_PKS4_S8_S8_RNS_8ios_baseES4_+0x5f>
100003312:	48 8b 45 f0 	movq	-16(%rbp), %rax
100003316:	48 89 45 f8 	movq	%rax, -8(%rbp)
10000331a:	e9 55 02 00 00 	jmp	597 <__ZNSt3__116__pad_and_outputIcNS_11char_traitsIcEEEENS_19ostreambuf_iteratorIT_T0_EES6_PKS4_S8_S8_RNS_8ios_baseES4_+0x2b4>
10000331f:	48 8b 45 d8 	movq	-40(%rbp), %rax
100003323:	48 8b 4d e8 	movq	-24(%rbp), %rcx
100003327:	48 29 c8 	subq	%rcx, %rax
10000332a:	48 89 45 b8 	movq	%rax, -72(%rbp)
10000332e:	48 8b 7d d0 	movq	-48(%rbp), %rdi
100003332:	e8 89 03 00 00 	callq	905 <__ZNKSt3__18ios_base5widthEv>
100003337:	48 89 45 b0 	movq	%rax, -80(%rbp)
10000333b:	48 8b 45 b0 	movq	-80(%rbp), %rax
10000333f:	48 3b 45 b8 	cmpq	-72(%rbp), %rax
100003343:	0f 8e 14 00 00 00 	jle	20 <__ZNSt3__116__pad_and_outputIcNS_11char_traitsIcEEEENS_19ostreambuf_iteratorIT_T0_EES6_PKS4_S8_S8_RNS_8ios_baseES4_+0x9d>
100003349:	48 8b 45 b8 	movq	-72(%rbp), %rax
10000334d:	48 8b 4d b0 	movq	-80(%rbp), %rcx
100003351:	48 29 c1 	subq	%rax, %rcx
100003354:	48 89 4d b0 	movq	%rcx, -80(%rbp)
100003358:	e9 08 00 00 00 	jmp	8 <__ZNSt3__116__pad_and_outputIcNS_11char_traitsIcEEEENS_19ostreambuf_iteratorIT_T0_EES6_PKS4_S8_S8_RNS_8ios_baseES4_+0xa5>
10000335d:	48 c7 45 b0 00 00 00 00 	movq	$0, -80(%rbp)
100003365:	48 8b 45 e0 	movq	-32(%rbp), %rax
100003369:	48 8b 4d e8 	movq	-24(%rbp), %rcx
10000336d:	48 29 c8 	subq	%rcx, %rax
100003370:	48 89 45 a8 	movq	%rax, -88(%rbp)
100003374:	48 83 7d a8 00 	cmpq	$0, -88(%rbp)
100003379:	0f 8e 43 00 00 00 	jle	67 <__ZNSt3__116__pad_and_outputIcNS_11char_traitsIcEEEENS_19ostreambuf_iteratorIT_T0_EES6_PKS4_S8_S8_RNS_8ios_baseES4_+0x102>
10000337f:	48 8b 7d f0 	movq	-16(%rbp), %rdi
100003383:	48 8b 75 e8 	movq	-24(%rbp), %rsi
100003387:	48 8b 55 a8 	movq	-88(%rbp), %rdx
10000338b:	e8 50 03 00 00 	callq	848 <__ZNSt3__115basic_streambufIcNS_11char_traitsIcEEE5sputnEPKcl>
100003390:	48 3b 45 a8 	cmpq	-88(%rbp), %rax
100003394:	0f 84 23 00 00 00 	je	35 <__ZNSt3__116__pad_and_outputIcNS_11char_traitsIcEEEENS_19ostreambuf_iteratorIT_T0_EES6_PKS4_S8_S8_RNS_8ios_baseES4_+0xfd>
10000339a:	e8 e1 de ff ff 	callq	-8479 <__ZNSt3__1L15__get_nullptr_tEv>
10000339f:	48 89 45 a0 	movq	%rax, -96(%rbp)
1000033a3:	48 8d 7d a0 	leaq	-96(%rbp), %rdi
1000033a7:	e8 04 03 00 00 	callq	772 <__ZNKSt3__19nullptr_tcvPT_INS_15basic_streambufIcNS_11char_traitsIcEEEEEEv>
1000033ac:	48 89 45 f0 	movq	%rax, -16(%rbp)
1000033b0:	48 8b 45 f0 	movq	-16(%rbp), %rax
1000033b4:	48 89 45 f8 	movq	%rax, -8(%rbp)
1000033b8:	e9 b7 01 00 00 	jmp	439 <__ZNSt3__116__pad_and_outputIcNS_11char_traitsIcEEEENS_19ostreambuf_iteratorIT_T0_EES6_PKS4_S8_S8_RNS_8ios_baseES4_+0x2b4>
1000033bd:	e9 00 00 00 00 	jmp	0 <__ZNSt3__116__pad_and_outputIcNS_11char_traitsIcEEEENS_19ostreambuf_iteratorIT_T0_EES6_PKS4_S8_S8_RNS_8ios_baseES4_+0x102>
1000033c2:	48 83 7d b0 00 	cmpq	$0, -80(%rbp)
1000033c7:	0f 8e 28 01 00 00 	jle	296 <__ZNSt3__116__pad_and_outputIcNS_11char_traitsIcEEEENS_19ostreambuf_iteratorIT_T0_EES6_PKS4_S8_S8_RNS_8ios_baseES4_+0x235>
1000033cd:	48 8b 75 b0 	movq	-80(%rbp), %rsi
1000033d1:	0f be 55 cf 	movsbl	-49(%rbp), %edx
1000033d5:	48 8d 45 88 	leaq	-120(%rbp), %rax
1000033d9:	48 89 c7 	movq	%rax, %rdi
1000033dc:	48 89 85 50 ff ff ff 	movq	%rax, -176(%rbp)
1000033e3:	e8 38 03 00 00 	callq	824 <__ZNSt3__112basic_stringIcNS_11char_traitsIcEENS_9allocatorIcEEEC1Emc>
1000033e8:	48 8b 7d f0 	movq	-16(%rbp), %rdi
1000033ec:	48 8b 85 50 ff ff ff 	movq	-176(%rbp), %rax
1000033f3:	48 89 bd 48 ff ff ff 	movq	%rdi, -184(%rbp)
1000033fa:	48 89 c7 	movq	%rax, %rdi
1000033fd:	e8 0e f9 ff ff 	callq	-1778 <__ZNKSt3__112basic_stringIcNS_11char_traitsIcEENS_9allocatorIcEEE4dataEv>
100003402:	48 8b 55 b0 	movq	-80(%rbp), %rdx
100003406:	48 8b bd 48 ff ff ff 	movq	-184(%rbp), %rdi
10000340d:	48 89 c6 	movq	%rax, %rsi
100003410:	e8 cb 02 00 00 	callq	715 <__ZNSt3__115basic_streambufIcNS_11char_traitsIcEEE5sputnEPKcl>
100003415:	48 89 85 40 ff ff ff 	movq	%rax, -192(%rbp)
10000341c:	e9 00 00 00 00 	jmp	0 <__ZNSt3__116__pad_and_outputIcNS_11char_traitsIcEEEENS_19ostreambuf_iteratorIT_T0_EES6_PKS4_S8_S8_RNS_8ios_baseES4_+0x161>
100003421:	48 8b 85 40 ff ff ff 	movq	-192(%rbp), %rax
100003428:	48 3b 45 b0 	cmpq	-80(%rbp), %rax
10000342c:	0f 84 73 00 00 00 	je	115 <__ZNSt3__116__pad_and_outputIcNS_11char_traitsIcEEEENS_19ostreambuf_iteratorIT_T0_EES6_PKS4_S8_S8_RNS_8ios_baseES4_+0x1e5>
100003432:	e8 49 de ff ff 	callq	-8631 <__ZNSt3__1L15__get_nullptr_tEv>
100003437:	48 89 85 38 ff ff ff 	movq	%rax, -200(%rbp)
10000343e:	e9 00 00 00 00 	jmp	0 <__ZNSt3__116__pad_and_outputIcNS_11char_traitsIcEEEENS_19ostreambuf_iteratorIT_T0_EES6_PKS4_S8_S8_RNS_8ios_baseES4_+0x183>
100003443:	48 8b 85 38 ff ff ff 	movq	-200(%rbp), %rax
10000344a:	48 89 85 70 ff ff ff 	movq	%rax, -144(%rbp)
100003451:	48 8d bd 70 ff ff ff 	leaq	-144(%rbp), %rdi
100003458:	e8 53 02 00 00 	callq	595 <__ZNKSt3__19nullptr_tcvPT_INS_15basic_streambufIcNS_11char_traitsIcEEEEEEv>
10000345d:	48 89 85 30 ff ff ff 	movq	%rax, -208(%rbp)
100003464:	e9 00 00 00 00 	jmp	0 <__ZNSt3__116__pad_and_outputIcNS_11char_traitsIcEEEENS_19ostreambuf_iteratorIT_T0_EES6_PKS4_S8_S8_RNS_8ios_baseES4_+0x1a9>
100003469:	48 8b 85 30 ff ff ff 	movq	-208(%rbp), %rax
100003470:	48 89 45 f0 	movq	%rax, -16(%rbp)
100003474:	48 8b 4d f0 	movq	-16(%rbp), %rcx
100003478:	48 89 4d f8 	movq	%rcx, -8(%rbp)
10000347c:	c7 85 6c ff ff ff 01 00 00 00 	movl	$1, -148(%rbp)
100003486:	e9 24 00 00 00 	jmp	36 <__ZNSt3__116__pad_and_outputIcNS_11char_traitsIcEEEENS_19ostreambuf_iteratorIT_T0_EES6_PKS4_S8_S8_RNS_8ios_baseES4_+0x1ef>
10000348b:	89 d1 	movl	%edx, %ecx
10000348d:	48 89 45 80 	movq	%rax, -128(%rbp)
100003491:	89 8d 7c ff ff ff 	movl	%ecx, -132(%rbp)
100003497:	48 8d 7d 88 	leaq	-120(%rbp), %rdi
10000349b:	e8 68 05 00 00 	callq	1384 <dyld_stub_binder+0x100003a08>
1000034a0:	e9 4b 00 00 00 	jmp	75 <__ZNSt3__116__pad_and_outputIcNS_11char_traitsIcEEEENS_19ostreambuf_iteratorIT_T0_EES6_PKS4_S8_S8_RNS_8ios_baseES4_+0x230>
1000034a5:	c7 85 6c ff ff ff 00 00 00 00 	movl	$0, -148(%rbp)
1000034af:	48 8d 7d 88 	leaq	-120(%rbp), %rdi
1000034b3:	e8 50 05 00 00 	callq	1360 <dyld_stub_binder+0x100003a08>
1000034b8:	8b 85 6c ff ff ff 	movl	-148(%rbp), %eax
1000034be:	85 c0 	testl	%eax, %eax
1000034c0:	89 85 2c ff ff ff 	movl	%eax, -212(%rbp)
1000034c6:	0f 84 1f 00 00 00 	je	31 <__ZNSt3__116__pad_and_outputIcNS_11char_traitsIcEEEENS_19ostreambuf_iteratorIT_T0_EES6_PKS4_S8_S8_RNS_8ios_baseES4_+0x22b>
1000034cc:	e9 00 00 00 00 	jmp	0 <__ZNSt3__116__pad_and_outputIcNS_11char_traitsIcEEEENS_19ostreambuf_iteratorIT_T0_EES6_PKS4_S8_S8_RNS_8ios_baseES4_+0x211>
1000034d1:	8b 85 2c ff ff ff 	movl	-212(%rbp), %eax
1000034d7:	83 e8 01 	subl	$1, %eax
1000034da:	89 85 28 ff ff ff 	movl	%eax, -216(%rbp)
1000034e0:	0f 84 8e 00 00 00 	je	142 <__ZNSt3__116__pad_and_outputIcNS_11char_traitsIcEEEENS_19ostreambuf_iteratorIT_T0_EES6_PKS4_S8_S8_RNS_8ios_baseES4_+0x2b4>
1000034e6:	e9 b0 00 00 00 	jmp	176 <__ZNSt3__116__pad_and_outputIcNS_11char_traitsIcEEEENS_19ostreambuf_iteratorIT_T0_EES6_PKS4_S8_S8_RNS_8ios_baseES4_+0x2db>
1000034eb:	e9 05 00 00 00 	jmp	5 <__ZNSt3__116__pad_and_outputIcNS_11char_traitsIcEEEENS_19ostreambuf_iteratorIT_T0_EES6_PKS4_S8_S8_RNS_8ios_baseES4_+0x235>
1000034f0:	e9 8c 00 00 00 	jmp	140 <__ZNSt3__116__pad_and_outputIcNS_11char_traitsIcEEEENS_19ostreambuf_iteratorIT_T0_EES6_PKS4_S8_S8_RNS_8ios_baseES4_+0x2c1>
1000034f5:	48 8b 45 d8 	movq	-40(%rbp), %rax
1000034f9:	48 8b 4d e0 	movq	-32(%rbp), %rcx
1000034fd:	48 29 c8 	subq	%rcx, %rax
100003500:	48 89 45 a8 	movq	%rax, -88(%rbp)
100003504:	48 83 7d a8 00 	cmpq	$0, -88(%rbp)
100003509:	0f 8e 49 00 00 00 	jle	73 <__ZNSt3__116__pad_and_outputIcNS_11char_traitsIcEEEENS_19ostreambuf_iteratorIT_T0_EES6_PKS4_S8_S8_RNS_8ios_baseES4_+0x298>
10000350f:	48 8b 7d f0 	movq	-16(%rbp), %rdi
100003513:	48 8b 75 e0 	movq	-32(%rbp), %rsi
100003517:	48 8b 55 a8 	movq	-88(%rbp), %rdx
10000351b:	e8 c0 01 00 00 	callq	448 <__ZNSt3__115basic_streambufIcNS_11char_traitsIcEEE5sputnEPKcl>
100003520:	48 3b 45 a8 	cmpq	-88(%rbp), %rax
100003524:	0f 84 29 00 00 00 	je	41 <__ZNSt3__116__pad_and_outputIcNS_11char_traitsIcEEEENS_19ostreambuf_iteratorIT_T0_EES6_PKS4_S8_S8_RNS_8ios_baseES4_+0x293>
10000352a:	e8 51 dd ff ff 	callq	-8879 <__ZNSt3__1L15__get_nullptr_tEv>
10000352f:	48 89 85 60 ff ff ff 	movq	%rax, -160(%rbp)
100003536:	48 8d bd 60 ff ff ff 	leaq	-160(%rbp), %rdi
10000353d:	e8 6e 01 00 00 	callq	366 <__ZNKSt3__19nullptr_tcvPT_INS_15basic_streambufIcNS_11char_traitsIcEEEEEEv>
100003542:	48 89 45 f0 	movq	%rax, -16(%rbp)
100003546:	48 8b 45 f0 	movq	-16(%rbp), %rax
10000354a:	48 89 45 f8 	movq	%rax, -8(%rbp)
10000354e:	e9 21 00 00 00 	jmp	33 <__ZNSt3__116__pad_and_outputIcNS_11char_traitsIcEEEENS_19ostreambuf_iteratorIT_T0_EES6_PKS4_S8_S8_RNS_8ios_baseES4_+0x2b4>
100003553:	e9 00 00 00 00 	jmp	0 <__ZNSt3__116__pad_and_outputIcNS_11char_traitsIcEEEENS_19ostreambuf_iteratorIT_T0_EES6_PKS4_S8_S8_RNS_8ios_baseES4_+0x298>
100003558:	31 c0 	xorl	%eax, %eax
10000355a:	89 c6 	movl	%eax, %esi
10000355c:	48 8b 7d d0 	movq	-48(%rbp), %rdi
100003560:	e8 eb 01 00 00 	callq	491 <__ZNSt3__18ios_base5widthEl>
100003565:	48 8b 75 f0 	movq	-16(%rbp), %rsi
100003569:	48 89 75 f8 	movq	%rsi, -8(%rbp)
10000356d:	48 89 85 20 ff ff ff 	movq	%rax, -224(%rbp)
100003574:	48 8b 45 f8 	movq	-8(%rbp), %rax
100003578:	48 81 c4 f0 00 00 00 	addq	$240, %rsp
10000357f:	5d 	popq	%rbp
100003580:	c3 	retq
100003581:	48 8b 7d 80 	movq	-128(%rbp), %rdi
100003585:	e8 2a 04 00 00 	callq	1066 <dyld_stub_binder+0x1000039b4>
10000358a:	0f 0b 	ud2
10000358c:	48 89 c7 	movq	%rax, %rdi
10000358f:	48 89 95 18 ff ff ff 	movq	%rdx, -232(%rbp)
100003596:	e8 55 d8 ff ff 	callq	-10155 <___clang_call_terminate>
10000359b:	0f 0b 	ud2
10000359d:	0f 1f 00 	nopl	(%rax)

__ZNSt3__119ostreambuf_iteratorIcNS_11char_traitsIcEEEC1ERNS_13basic_ostreamIcS2_EE:
1000035a0:	55 	pushq	%rbp
1000035a1:	48 89 e5 	movq	%rsp, %rbp
1000035a4:	48 83 ec 10 	subq	$16, %rsp
1000035a8:	48 89 7d f8 	movq	%rdi, -8(%rbp)
1000035ac:	48 89 75 f0 	movq	%rsi, -16(%rbp)
1000035b0:	48 8b 7d f8 	movq	-8(%rbp), %rdi
1000035b4:	48 8b 75 f0 	movq	-16(%rbp), %rsi
1000035b8:	e8 03 02 00 00 	callq	515 <__ZNSt3__119ostreambuf_iteratorIcNS_11char_traitsIcEEEC2ERNS_13basic_ostreamIcS2_EE>
1000035bd:	48 83 c4 10 	addq	$16, %rsp
1000035c1:	5d 	popq	%rbp
1000035c2:	c3 	retq
1000035c3:	66 2e 0f 1f 84 00 00 00 00 00 	nopw	%cs:(%rax,%rax)
1000035cd:	0f 1f 00 	nopl	(%rax)

__ZNKSt3__18ios_base5flagsEv:
1000035d0:	55 	pushq	%rbp
1000035d1:	48 89 e5 	movq	%rsp, %rbp
1000035d4:	48 89 7d f8 	movq	%rdi, -8(%rbp)
1000035d8:	48 8b 7d f8 	movq	-8(%rbp), %rdi
1000035dc:	8b 47 08 	movl	8(%rdi), %eax
1000035df:	5d 	popq	%rbp
1000035e0:	c3 	retq
1000035e1:	66 2e 0f 1f 84 00 00 00 00 00 	nopw	%cs:(%rax,%rax)
1000035eb:	0f 1f 44 00 00 	nopl	(%rax,%rax)

__ZNKSt3__19basic_iosIcNS_11char_traitsIcEEE4fillEv:
1000035f0:	55 	pushq	%rbp
1000035f1:	48 89 e5 	movq	%rsp, %rbp
1000035f4:	48 83 ec 10 	subq	$16, %rsp
1000035f8:	48 89 7d f8 	movq	%rdi, -8(%rbp)
1000035fc:	48 8b 7d f8 	movq	-8(%rbp), %rdi
100003600:	48 89 7d f0 	movq	%rdi, -16(%rbp)
100003604:	e8 d5 03 00 00 	callq	981 <dyld_stub_binder+0x1000039de>
100003609:	48 8b 7d f0 	movq	-16(%rbp), %rdi
10000360d:	8b b7 90 00 00 00 	movl	144(%rdi), %esi
100003613:	89 c7 	movl	%eax, %edi
100003615:	e8 be 03 00 00 	callq	958 <dyld_stub_binder+0x1000039d8>
10000361a:	a8 01 	testb	$1, %al
10000361c:	0f 85 05 00 00 00 	jne	5 <__ZNKSt3__19basic_iosIcNS_11char_traitsIcEEE4fillEv+0x37>
100003622:	e9 1b 00 00 00 	jmp	27 <__ZNKSt3__19basic_iosIcNS_11char_traitsIcEEE4fillEv+0x52>
100003627:	48 8b 7d f0 	movq	-16(%rbp), %rdi
10000362b:	be 20 00 00 00 	movl	$32, %esi
100003630:	e8 5b 02 00 00 	callq	603 <__ZNKSt3__19basic_iosIcNS_11char_traitsIcEEE5widenEc>
100003635:	0f be f0 	movsbl	%al, %esi
100003638:	48 8b 7d f0 	movq	-16(%rbp), %rdi
10000363c:	89 b7 90 00 00 00 	movl	%esi, 144(%rdi)
100003642:	48 8b 45 f0 	movq	-16(%rbp), %rax
100003646:	8b 88 90 00 00 00 	movl	144(%rax), %ecx
10000364c:	88 ca 	movb	%cl, %dl
10000364e:	0f be ca 	movsbl	%dl, %ecx
100003651:	89 c8 	movl	%ecx, %eax
100003653:	48 83 c4 10 	addq	$16, %rsp
100003657:	5d 	popq	%rbp
100003658:	c3 	retq
100003659:	0f 1f 80 00 00 00 00 	nopl	(%rax)

__ZNKSt3__119ostreambuf_iteratorIcNS_11char_traitsIcEEE6failedEv:
100003660:	55 	pushq	%rbp
100003661:	48 89 e5 	movq	%rsp, %rbp
100003664:	48 89 7d f8 	movq	%rdi, -8(%rbp)
100003668:	48 8b 7d f8 	movq	-8(%rbp), %rdi
10000366c:	48 83 3f 00 	cmpq	$0, (%rdi)
100003670:	0f 94 c0 	sete	%al
100003673:	24 01 	andb	$1, %al
100003675:	0f b6 c0 	movzbl	%al, %eax
100003678:	5d 	popq	%rbp
100003679:	c3 	retq
10000367a:	66 0f 1f 44 00 00 	nopw	(%rax,%rax)

__ZNSt3__19basic_iosIcNS_11char_traitsIcEEE8setstateEj:
100003680:	55 	pushq	%rbp
100003681:	48 89 e5 	movq	%rsp, %rbp
100003684:	48 83 ec 10 	subq	$16, %rsp
100003688:	48 89 7d f8 	movq	%rdi, -8(%rbp)
10000368c:	89 75 f4 	movl	%esi, -12(%rbp)
10000368f:	48 8b 7d f8 	movq	-8(%rbp), %rdi
100003693:	8b 75 f4 	movl	-12(%rbp), %esi
100003696:	e8 f5 02 00 00 	callq	757 <__ZNSt3__18ios_base8setstateEj>
10000369b:	48 83 c4 10 	addq	$16, %rsp
10000369f:	5d 	popq	%rbp
1000036a0:	c3 	retq
1000036a1:	66 2e 0f 1f 84 00 00 00 00 00 	nopw	%cs:(%rax,%rax)
1000036ab:	0f 1f 44 00 00 	nopl	(%rax,%rax)

__ZNKSt3__19nullptr_tcvPT_INS_15basic_streambufIcNS_11char_traitsIcEEEEEEv:
1000036b0:	55 	pushq	%rbp
1000036b1:	48 89 e5 	movq	%rsp, %rbp
1000036b4:	31 c0 	xorl	%eax, %eax
1000036b6:	48 89 7d f8 	movq	%rdi, -8(%rbp)
1000036ba:	5d 	popq	%rbp
1000036bb:	c3 	retq
1000036bc:	0f 1f 40 00 	nopl	(%rax)

__ZNKSt3__18ios_base5widthEv:
1000036c0:	55 	pushq	%rbp
1000036c1:	48 89 e5 	movq	%rsp, %rbp
1000036c4:	48 89 7d f8 	movq	%rdi, -8(%rbp)
1000036c8:	48 8b 7d f8 	movq	-8(%rbp), %rdi
1000036cc:	48 8b 47 18 	movq	24(%rdi), %rax
1000036d0:	5d 	popq	%rbp
1000036d1:	c3 	retq
1000036d2:	66 2e 0f 1f 84 00 00 00 00 00 	nopw	%cs:(%rax,%rax)
1000036dc:	0f 1f 40 00 	nopl	(%rax)

__ZNSt3__115basic_streambufIcNS_11char_traitsIcEEE5sputnEPKcl:
1000036e0:	55 	pushq	%rbp
1000036e1:	48 89 e5 	movq	%rsp, %rbp
1000036e4:	48 83 ec 20 	subq	$32, %rsp
1000036e8:	48 89 7d f8 	movq	%rdi, -8(%rbp)
1000036ec:	48 89 75 f0 	movq	%rsi, -16(%rbp)
1000036f0:	48 89 55 e8 	movq	%rdx, -24(%rbp)
1000036f4:	48 8b 55 f8 	movq	-8(%rbp), %rdx
1000036f8:	48 8b 75 f0 	movq	-16(%rbp), %rsi
1000036fc:	48 8b 7d e8 	movq	-24(%rbp), %rdi
100003700:	48 8b 02 	movq	(%rdx), %rax
100003703:	48 89 7d e0 	movq	%rdi, -32(%rbp)
100003707:	48 89 d7 	movq	%rdx, %rdi
10000370a:	48 8b 55 e0 	movq	-32(%rbp), %rdx
10000370e:	ff 50 60 	callq	*96(%rax)
100003711:	48 83 c4 20 	addq	$32, %rsp
100003715:	5d 	popq	%rbp
100003716:	c3 	retq
100003717:	66 0f 1f 84 00 00 00 00 00 	nopw	(%rax,%rax)

__ZNSt3__112basic_stringIcNS_11char_traitsIcEENS_9allocatorIcEEEC1Emc:
100003720:	55 	pushq	%rbp
100003721:	48 89 e5 	movq	%rsp, %rbp
100003724:	48 83 ec 20 	subq	$32, %rsp
100003728:	88 d0 	movb	%dl, %al
10000372a:	48 89 7d f8 	movq	%rdi, -8(%rbp)
10000372e:	48 89 75 f0 	movq	%rsi, -16(%rbp)
100003732:	88 45 ef 	movb	%al, -17(%rbp)
100003735:	48 8b 7d f8 	movq	-8(%rbp), %rdi
100003739:	48 8b 75 f0 	movq	-16(%rbp), %rsi
10000373d:	0f be 55 ef 	movsbl	-17(%rbp), %edx
100003741:	e8 3a 00 00 00 	callq	58 <__ZNSt3__112basic_stringIcNS_11char_traitsIcEENS_9allocatorIcEEEC2Emc>
100003746:	48 83 c4 20 	addq	$32, %rsp
10000374a:	5d 	popq	%rbp
10000374b:	c3 	retq
10000374c:	0f 1f 40 00 	nopl	(%rax)

__ZNSt3__18ios_base5widthEl:
100003750:	55 	pushq	%rbp
100003751:	48 89 e5 	movq	%rsp, %rbp
100003754:	48 89 7d f8 	movq	%rdi, -8(%rbp)
100003758:	48 89 75 f0 	movq	%rsi, -16(%rbp)
10000375c:	48 8b 75 f8 	movq	-8(%rbp), %rsi
100003760:	48 8b 7e 18 	movq	24(%rsi), %rdi
100003764:	48 89 7d e8 	movq	%rdi, -24(%rbp)
100003768:	48 8b 7d f0 	movq	-16(%rbp), %rdi
10000376c:	48 89 7e 18 	movq	%rdi, 24(%rsi)
100003770:	48 8b 45 e8 	movq	-24(%rbp), %rax
100003774:	5d 	popq	%rbp
100003775:	c3 	retq
100003776:	66 2e 0f 1f 84 00 00 00 00 00 	nopw	%cs:(%rax,%rax)

__ZNSt3__112basic_stringIcNS_11char_traitsIcEENS_9allocatorIcEEEC2Emc:
100003780:	55 	pushq	%rbp
100003781:	48 89 e5 	movq	%rsp, %rbp
100003784:	48 83 ec 20 	subq	$32, %rsp
100003788:	88 d0 	movb	%dl, %al
10000378a:	48 89 7d f8 	movq	%rdi, -8(%rbp)
10000378e:	48 89 75 f0 	movq	%rsi, -16(%rbp)
100003792:	88 45 ef 	movb	%al, -17(%rbp)
100003795:	48 8b 75 f8 	movq	-8(%rbp), %rsi
100003799:	48 89 f7 	movq	%rsi, %rdi
10000379c:	48 89 75 e0 	movq	%rsi, -32(%rbp)
1000037a0:	e8 1b f0 ff ff 	callq	-4069 <__ZNSt3__117__compressed_pairINS_12basic_stringIcNS_11char_traitsIcEENS_9allocatorIcEEE5__repES5_EC1Ev>
1000037a5:	48 8b 75 f0 	movq	-16(%rbp), %rsi
1000037a9:	48 8b 7d e0 	movq	-32(%rbp), %rdi
1000037ad:	0f be 55 ef 	movsbl	-17(%rbp), %edx
1000037b1:	e8 40 02 00 00 	callq	576 <dyld_stub_binder+0x1000039f6>
1000037b6:	48 83 c4 20 	addq	$32, %rsp
1000037ba:	5d 	popq	%rbp
1000037bb:	c3 	retq
1000037bc:	0f 1f 40 00 	nopl	(%rax)

__ZNSt3__119ostreambuf_iteratorIcNS_11char_traitsIcEEEC2ERNS_13basic_ostreamIcS2_EE:
1000037c0:	55 	pushq	%rbp
1000037c1:	48 89 e5 	movq	%rsp, %rbp
1000037c4:	48 83 ec 30 	subq	$48, %rsp
1000037c8:	48 89 7d f8 	movq	%rdi, -8(%rbp)
1000037cc:	48 89 75 f0 	movq	%rsi, -16(%rbp)
1000037d0:	48 8b 75 f8 	movq	-8(%rbp), %rsi
1000037d4:	48 8b 7d f0 	movq	-16(%rbp), %rdi
1000037d8:	48 8b 07 	movq	(%rdi), %rax
1000037db:	48 8b 40 e8 	movq	-24(%rax), %rax
1000037df:	48 01 c7 	addq	%rax, %rdi
1000037e2:	48 89 75 d8 	movq	%rsi, -40(%rbp)
1000037e6:	e8 35 00 00 00 	callq	53 <__ZNKSt3__19basic_iosIcNS_11char_traitsIcEEE5rdbufEv>
1000037eb:	48 89 45 d0 	movq	%rax, -48(%rbp)
1000037ef:	e9 00 00 00 00 	jmp	0 <__ZNSt3__119ostreambuf_iteratorIcNS_11char_traitsIcEEEC2ERNS_13basic_ostreamIcS2_EE+0x34>
1000037f4:	48 8b 45 d8 	movq	-40(%rbp), %rax
1000037f8:	48 8b 4d d0 	movq	-48(%rbp), %rcx
1000037fc:	48 89 08 	movq	%rcx, (%rax)
1000037ff:	48 83 c4 30 	addq	$48, %rsp
100003803:	5d 	popq	%rbp
100003804:	c3 	retq
100003805:	89 d1 	movl	%edx, %ecx
100003807:	48 89 45 e8 	movq	%rax, -24(%rbp)
10000380b:	89 4d e4 	movl	%ecx, -28(%rbp)
10000380e:	48 8b 7d e8 	movq	-24(%rbp), %rdi
100003812:	e8 81 02 00 00 	callq	641 <dyld_stub_binder+0x100003a98>
100003817:	66 0f 1f 84 00 00 00 00 00 	nopw	(%rax,%rax)

__ZNKSt3__19basic_iosIcNS_11char_traitsIcEEE5rdbufEv:
100003820:	55 	pushq	%rbp
100003821:	48 89 e5 	movq	%rsp, %rbp
100003824:	48 83 ec 10 	subq	$16, %rsp
100003828:	48 89 7d f8 	movq	%rdi, -8(%rbp)
10000382c:	48 8b 7d f8 	movq	-8(%rbp), %rdi
100003830:	e8 0b 00 00 00 	callq	11 <__ZNKSt3__18ios_base5rdbufEv>
100003835:	48 83 c4 10 	addq	$16, %rsp
100003839:	5d 	popq	%rbp
10000383a:	c3 	retq
10000383b:	0f 1f 44 00 00 	nopl	(%rax,%rax)

__ZNKSt3__18ios_base5rdbufEv:
100003840:	55 	pushq	%rbp
100003841:	48 89 e5 	movq	%rsp, %rbp
100003844:	48 89 7d f8 	movq	%rdi, -8(%rbp)
100003848:	48 8b 7d f8 	movq	-8(%rbp), %rdi
10000384c:	48 8b 47 28 	movq	40(%rdi), %rax
100003850:	5d 	popq	%rbp
100003851:	c3 	retq
100003852:	66 2e 0f 1f 84 00 00 00 00 00 	nopw	%cs:(%rax,%rax)
10000385c:	0f 1f 40 00 	nopl	(%rax)

__ZNSt3__111char_traitsIcE11eq_int_typeEii:
100003860:	55 	pushq	%rbp
100003861:	48 89 e5 	movq	%rsp, %rbp
100003864:	89 7d fc 	movl	%edi, -4(%rbp)
100003867:	89 75 f8 	movl	%esi, -8(%rbp)
10000386a:	8b 75 fc 	movl	-4(%rbp), %esi
10000386d:	3b 75 f8 	cmpl	-8(%rbp), %esi
100003870:	0f 94 c0 	sete	%al
100003873:	24 01 	andb	$1, %al
100003875:	0f b6 c0 	movzbl	%al, %eax
100003878:	5d 	popq	%rbp
100003879:	c3 	retq
10000387a:	66 0f 1f 44 00 00 	nopw	(%rax,%rax)

__ZNSt3__111char_traitsIcE3eofEv:
100003880:	55 	pushq	%rbp
100003881:	48 89 e5 	movq	%rsp, %rbp
100003884:	b8 ff ff ff ff 	movl	$4294967295, %eax
100003889:	5d 	popq	%rbp
10000388a:	c3 	retq
10000388b:	0f 1f 44 00 00 	nopl	(%rax,%rax)

__ZNKSt3__19basic_iosIcNS_11char_traitsIcEEE5widenEc:
100003890:	55 	pushq	%rbp
100003891:	48 89 e5 	movq	%rsp, %rbp
100003894:	48 83 ec 50 	subq	$80, %rsp
100003898:	40 88 f0 	movb	%sil, %al
10000389b:	48 89 7d f8 	movq	%rdi, -8(%rbp)
10000389f:	88 45 f7 	movb	%al, -9(%rbp)
1000038a2:	48 8b 75 f8 	movq	-8(%rbp), %rsi
1000038a6:	48 8d 7d e8 	leaq	-24(%rbp), %rdi
1000038aa:	48 89 7d d0 	movq	%rdi, -48(%rbp)
1000038ae:	e8 19 01 00 00 	callq	281 <dyld_stub_binder+0x1000039cc>
1000038b3:	48 8b 7d d0 	movq	-48(%rbp), %rdi
1000038b7:	e8 74 00 00 00 	callq	116 <__ZNSt3__1L9use_facetINS_5ctypeIcEEEERKT_RKNS_6localeE>
1000038bc:	48 89 45 c8 	movq	%rax, -56(%rbp)
1000038c0:	e9 00 00 00 00 	jmp	0 <__ZNKSt3__19basic_iosIcNS_11char_traitsIcEEE5widenEc+0x35>
1000038c5:	0f be 75 f7 	movsbl	-9(%rbp), %esi
1000038c9:	48 8b 7d c8 	movq	-56(%rbp), %rdi
1000038cd:	e8 8e 00 00 00 	callq	142 <__ZNKSt3__15ctypeIcE5widenEc>
1000038d2:	88 45 c7 	movb	%al, -57(%rbp)
1000038d5:	e9 00 00 00 00 	jmp	0 <__ZNKSt3__19basic_iosIcNS_11char_traitsIcEEE5widenEc+0x4a>
1000038da:	48 8d 7d e8 	leaq	-24(%rbp), %rdi
1000038de:	e8 5b 01 00 00 	callq	347 <dyld_stub_binder+0x100003a3e>
1000038e3:	8a 45 c7 	movb	-57(%rbp), %al
1000038e6:	0f be c0 	movsbl	%al, %eax
1000038e9:	48 83 c4 50 	addq	$80, %rsp
1000038ed:	5d 	popq	%rbp
1000038ee:	c3 	retq
1000038ef:	89 d1 	movl	%edx, %ecx
1000038f1:	48 89 45 e0 	movq	%rax, -32(%rbp)
1000038f5:	89 4d dc 	movl	%ecx, -36(%rbp)
1000038f8:	48 8d 7d e8 	leaq	-24(%rbp), %rdi
1000038fc:	e8 3d 01 00 00 	callq	317 <dyld_stub_binder+0x100003a3e>
100003901:	e9 00 00 00 00 	jmp	0 <__ZNKSt3__19basic_iosIcNS_11char_traitsIcEEE5widenEc+0x76>
100003906:	e9 00 00 00 00 	jmp	0 <__ZNKSt3__19basic_iosIcNS_11char_traitsIcEEE5widenEc+0x7b>
10000390b:	48 8b 7d e0 	movq	-32(%rbp), %rdi
10000390f:	e8 a0 00 00 00 	callq	160 <dyld_stub_binder+0x1000039b4>
100003914:	0f 0b 	ud2
100003916:	48 89 c7 	movq	%rax, %rdi
100003919:	48 89 55 b8 	movq	%rdx, -72(%rbp)
10000391d:	e8 ce d4 ff ff 	callq	-11058 <___clang_call_terminate>
100003922:	66 2e 0f 1f 84 00 00 00 00 00 	nopw	%cs:(%rax,%rax)
10000392c:	0f 1f 40 00 	nopl	(%rax)

__ZNSt3__1L9use_facetINS_5ctypeIcEEEERKT_RKNS_6localeE:
100003930:	55 	pushq	%rbp
100003931:	48 89 e5 	movq	%rsp, %rbp
100003934:	48 83 ec 10 	subq	$16, %rsp
100003938:	48 8b 35 e1 06 00 00 	movq	1761(%rip), %rsi
10000393f:	48 89 7d f8 	movq	%rdi, -8(%rbp)
100003943:	48 8b 7d f8 	movq	-8(%rbp), %rdi
100003947:	e8 74 00 00 00 	callq	116 <dyld_stub_binder+0x1000039c0>
10000394c:	48 83 c4 10 	addq	$16, %rsp
100003950:	5d 	popq	%rbp
100003951:	c3 	retq
100003952:	66 2e 0f 1f 84 00 00 00 00 00 	nopw	%cs:(%rax,%rax)
10000395c:	0f 1f 40 00 	nopl	(%rax)

__ZNKSt3__15ctypeIcE5widenEc:
100003960:	55 	pushq	%rbp
100003961:	48 89 e5 	movq	%rsp, %rbp
100003964:	48 83 ec 10 	subq	$16, %rsp
100003968:	40 88 f0 	movb	%sil, %al
10000396b:	48 89 7d f8 	movq	%rdi, -8(%rbp)
10000396f:	88 45 f7 	movb	%al, -9(%rbp)
100003972:	48 8b 7d f8 	movq	-8(%rbp), %rdi
100003976:	8a 45 f7 	movb	-9(%rbp), %al
100003979:	48 8b 0f 	movq	(%rdi), %rcx
10000397c:	0f be f0 	movsbl	%al, %esi
10000397f:	ff 51 38 	callq	*56(%rcx)
100003982:	0f be c0 	movsbl	%al, %eax
100003985:	48 83 c4 10 	addq	$16, %rsp
100003989:	5d 	popq	%rbp
10000398a:	c3 	retq
10000398b:	0f 1f 44 00 00 	nopl	(%rax,%rax)

__ZNSt3__18ios_base8setstateEj:
100003990:	55 	pushq	%rbp
100003991:	48 89 e5 	movq	%rsp, %rbp
100003994:	48 83 ec 10 	subq	$16, %rsp
100003998:	48 89 7d f8 	movq	%rdi, -8(%rbp)
10000399c:	89 75 f4 	movl	%esi, -12(%rbp)
10000399f:	48 8b 7d f8 	movq	-8(%rbp), %rdi
1000039a3:	8b 77 20 	movl	32(%rdi), %esi
1000039a6:	0b 75 f4 	orl	-12(%rbp), %esi
1000039a9:	e8 b4 00 00 00 	callq	180 <dyld_stub_binder+0x100003a62>
1000039ae:	48 83 c4 10 	addq	$16, %rsp
1000039b2:	5d 	popq	%rbp
1000039b3:	c3 	retq
Disassembly of section __TEXT,__stubs:
__stubs:
1000039b4:	ff 25 8e 06 00 00 	jmpq	*1678(%rip)
1000039ba:	ff 25 90 06 00 00 	jmpq	*1680(%rip)
1000039c0:	ff 25 92 06 00 00 	jmpq	*1682(%rip)
1000039c6:	ff 25 94 06 00 00 	jmpq	*1684(%rip)
1000039cc:	ff 25 96 06 00 00 	jmpq	*1686(%rip)
1000039d2:	ff 25 98 06 00 00 	jmpq	*1688(%rip)
1000039d8:	ff 25 9a 06 00 00 	jmpq	*1690(%rip)
1000039de:	ff 25 9c 06 00 00 	jmpq	*1692(%rip)
1000039e4:	ff 25 9e 06 00 00 	jmpq	*1694(%rip)
1000039ea:	ff 25 a0 06 00 00 	jmpq	*1696(%rip)
1000039f0:	ff 25 a2 06 00 00 	jmpq	*1698(%rip)
1000039f6:	ff 25 a4 06 00 00 	jmpq	*1700(%rip)
1000039fc:	ff 25 a6 06 00 00 	jmpq	*1702(%rip)
100003a02:	ff 25 a8 06 00 00 	jmpq	*1704(%rip)
100003a08:	ff 25 aa 06 00 00 	jmpq	*1706(%rip)
100003a0e:	ff 25 ac 06 00 00 	jmpq	*1708(%rip)
100003a14:	ff 25 ae 06 00 00 	jmpq	*1710(%rip)
100003a1a:	ff 25 b0 06 00 00 	jmpq	*1712(%rip)
100003a20:	ff 25 b2 06 00 00 	jmpq	*1714(%rip)
100003a26:	ff 25 b4 06 00 00 	jmpq	*1716(%rip)
100003a2c:	ff 25 b6 06 00 00 	jmpq	*1718(%rip)
100003a32:	ff 25 b8 06 00 00 	jmpq	*1720(%rip)
100003a38:	ff 25 ba 06 00 00 	jmpq	*1722(%rip)
100003a3e:	ff 25 bc 06 00 00 	jmpq	*1724(%rip)
100003a44:	ff 25 be 06 00 00 	jmpq	*1726(%rip)
100003a4a:	ff 25 c0 06 00 00 	jmpq	*1728(%rip)
100003a50:	ff 25 c2 06 00 00 	jmpq	*1730(%rip)
100003a56:	ff 25 c4 06 00 00 	jmpq	*1732(%rip)
100003a5c:	ff 25 c6 06 00 00 	jmpq	*1734(%rip)
100003a62:	ff 25 c8 06 00 00 	jmpq	*1736(%rip)
100003a68:	ff 25 ca 06 00 00 	jmpq	*1738(%rip)
100003a6e:	ff 25 cc 06 00 00 	jmpq	*1740(%rip)
100003a74:	ff 25 ce 06 00 00 	jmpq	*1742(%rip)
100003a7a:	ff 25 d0 06 00 00 	jmpq	*1744(%rip)
100003a80:	ff 25 d2 06 00 00 	jmpq	*1746(%rip)
100003a86:	ff 25 d4 06 00 00 	jmpq	*1748(%rip)
100003a8c:	ff 25 d6 06 00 00 	jmpq	*1750(%rip)
100003a92:	ff 25 d8 06 00 00 	jmpq	*1752(%rip)
100003a98:	ff 25 da 06 00 00 	jmpq	*1754(%rip)
100003a9e:	ff 25 dc 06 00 00 	jmpq	*1756(%rip)
100003aa4:	ff 25 de 06 00 00 	jmpq	*1758(%rip)
100003aaa:	ff 25 e0 06 00 00 	jmpq	*1760(%rip)
100003ab0:	ff 25 e2 06 00 00 	jmpq	*1762(%rip)
100003ab6:	ff 25 e4 06 00 00 	jmpq	*1764(%rip)
Disassembly of section __TEXT,__stub_helper:
__stub_helper:
100003abc:	4c 8d 1d 3d 05 00 00 	leaq	1341(%rip), %r11
100003ac3:	41 53 	pushq	%r11
100003ac5:	ff 25 75 05 00 00 	jmpq	*1397(%rip)
100003acb:	90 	nop
100003acc:	68 16 00 00 00 	pushq	$22
100003ad1:	e9 e6 ff ff ff 	jmp	-26 </var/folders/96/df02xppj77g7dx698gtmwmrw0000gn/T/ass1-ee2b41.o+0xa250e5a6>
100003ad6:	68 5c 00 00 00 	pushq	$92
100003adb:	e9 dc ff ff ff 	jmp	-36 </var/folders/96/df02xppj77g7dx698gtmwmrw0000gn/T/ass1-ee2b41.o+0xa250e5a6>
100003ae0:	68 89 00 00 00 	pushq	$137
100003ae5:	e9 d2 ff ff ff 	jmp	-46 </var/folders/96/df02xppj77g7dx698gtmwmrw0000gn/T/ass1-ee2b41.o+0xa250e5a6>
100003aea:	68 ad 00 00 00 	pushq	$173
100003aef:	e9 c8 ff ff ff 	jmp	-56 </var/folders/96/df02xppj77g7dx698gtmwmrw0000gn/T/ass1-ee2b41.o+0xa250e5a6>
100003af4:	68 cd 00 00 00 	pushq	$205
100003af9:	e9 be ff ff ff 	jmp	-66 </var/folders/96/df02xppj77g7dx698gtmwmrw0000gn/T/ass1-ee2b41.o+0xa250e5a6>
100003afe:	68 21 01 00 00 	pushq	$289
100003b03:	e9 b4 ff ff ff 	jmp	-76 </var/folders/96/df02xppj77g7dx698gtmwmrw0000gn/T/ass1-ee2b41.o+0xa250e5a6>
100003b08:	68 76 01 00 00 	pushq	$374
100003b0d:	e9 aa ff ff ff 	jmp	-86 </var/folders/96/df02xppj77g7dx698gtmwmrw0000gn/T/ass1-ee2b41.o+0xa250e5a6>
100003b12:	68 c8 01 00 00 	pushq	$456
100003b17:	e9 a0 ff ff ff 	jmp	-96 </var/folders/96/df02xppj77g7dx698gtmwmrw0000gn/T/ass1-ee2b41.o+0xa250e5a6>
100003b1c:	68 1c 02 00 00 	pushq	$540
100003b21:	e9 96 ff ff ff 	jmp	-106 </var/folders/96/df02xppj77g7dx698gtmwmrw0000gn/T/ass1-ee2b41.o+0xa250e5a6>
100003b26:	68 6c 02 00 00 	pushq	$620
100003b2b:	e9 8c ff ff ff 	jmp	-116 </var/folders/96/df02xppj77g7dx698gtmwmrw0000gn/T/ass1-ee2b41.o+0xa250e5a6>
100003b30:	68 b8 02 00 00 	pushq	$696
100003b35:	e9 82 ff ff ff 	jmp	-126 </var/folders/96/df02xppj77g7dx698gtmwmrw0000gn/T/ass1-ee2b41.o+0xa250e5a6>
100003b3a:	68 f5 02 00 00 	pushq	$757
100003b3f:	e9 78 ff ff ff 	jmp	-136 </var/folders/96/df02xppj77g7dx698gtmwmrw0000gn/T/ass1-ee2b41.o+0xa250e5a6>
100003b44:	68 33 03 00 00 	pushq	$819
100003b49:	e9 6e ff ff ff 	jmp	-146 </var/folders/96/df02xppj77g7dx698gtmwmrw0000gn/T/ass1-ee2b41.o+0xa250e5a6>
100003b4e:	68 73 03 00 00 	pushq	$883
100003b53:	e9 64 ff ff ff 	jmp	-156 </var/folders/96/df02xppj77g7dx698gtmwmrw0000gn/T/ass1-ee2b41.o+0xa250e5a6>
100003b58:	68 b9 03 00 00 	pushq	$953
100003b5d:	e9 5a ff ff ff 	jmp	-166 </var/folders/96/df02xppj77g7dx698gtmwmrw0000gn/T/ass1-ee2b41.o+0xa250e5a6>
100003b62:	68 fc 03 00 00 	pushq	$1020
100003b67:	e9 50 ff ff ff 	jmp	-176 </var/folders/96/df02xppj77g7dx698gtmwmrw0000gn/T/ass1-ee2b41.o+0xa250e5a6>
100003b6c:	68 19 04 00 00 	pushq	$1049
100003b71:	e9 46 ff ff ff 	jmp	-186 </var/folders/96/df02xppj77g7dx698gtmwmrw0000gn/T/ass1-ee2b41.o+0xa250e5a6>
100003b76:	68 59 04 00 00 	pushq	$1113
100003b7b:	e9 3c ff ff ff 	jmp	-196 </var/folders/96/df02xppj77g7dx698gtmwmrw0000gn/T/ass1-ee2b41.o+0xa250e5a6>
100003b80:	68 7c 04 00 00 	pushq	$1148
100003b85:	e9 32 ff ff ff 	jmp	-206 </var/folders/96/df02xppj77g7dx698gtmwmrw0000gn/T/ass1-ee2b41.o+0xa250e5a6>
100003b8a:	68 df 04 00 00 	pushq	$1247
100003b8f:	e9 28 ff ff ff 	jmp	-216 </var/folders/96/df02xppj77g7dx698gtmwmrw0000gn/T/ass1-ee2b41.o+0xa250e5a6>
100003b94:	68 f7 04 00 00 	pushq	$1271
100003b99:	e9 1e ff ff ff 	jmp	-226 </var/folders/96/df02xppj77g7dx698gtmwmrw0000gn/T/ass1-ee2b41.o+0xa250e5a6>
100003b9e:	68 18 05 00 00 	pushq	$1304
100003ba3:	e9 14 ff ff ff 	jmp	-236 </var/folders/96/df02xppj77g7dx698gtmwmrw0000gn/T/ass1-ee2b41.o+0xa250e5a6>
100003ba8:	68 32 05 00 00 	pushq	$1330
100003bad:	e9 0a ff ff ff 	jmp	-246 </var/folders/96/df02xppj77g7dx698gtmwmrw0000gn/T/ass1-ee2b41.o+0xa250e5a6>
100003bb2:	68 50 05 00 00 	pushq	$1360
100003bb7:	e9 00 ff ff ff 	jmp	-256 </var/folders/96/df02xppj77g7dx698gtmwmrw0000gn/T/ass1-ee2b41.o+0xa250e5a6>
100003bbc:	68 68 05 00 00 	pushq	$1384
100003bc1:	e9 f6 fe ff ff 	jmp	-266 </var/folders/96/df02xppj77g7dx698gtmwmrw0000gn/T/ass1-ee2b41.o+0xa250e5a6>
100003bc6:	68 85 05 00 00 	pushq	$1413
100003bcb:	e9 ec fe ff ff 	jmp	-276 </var/folders/96/df02xppj77g7dx698gtmwmrw0000gn/T/ass1-ee2b41.o+0xa250e5a6>
100003bd0:	68 00 00 00 00 	pushq	$0
100003bd5:	e9 e2 fe ff ff 	jmp	-286 </var/folders/96/df02xppj77g7dx698gtmwmrw0000gn/T/ass1-ee2b41.o+0xa250e5a6>
100003bda:	68 99 05 00 00 	pushq	$1433
100003bdf:	e9 d8 fe ff ff 	jmp	-296 </var/folders/96/df02xppj77g7dx698gtmwmrw0000gn/T/ass1-ee2b41.o+0xa250e5a6>
100003be4:	68 a8 05 00 00 	pushq	$1448
100003be9:	e9 ce fe ff ff 	jmp	-306 </var/folders/96/df02xppj77g7dx698gtmwmrw0000gn/T/ass1-ee2b41.o+0xa250e5a6>
